   1               		.file	"keyboard.c"
   2               	__SREG__ = 0x3f
   3               	__SP_H__ = 0x3e
   4               	__SP_L__ = 0x3d
   5               	__tmp_reg__ = 0
   6               	__zero_reg__ = 1
   7               		.global __do_copy_data
   8               		.global __do_clear_bss
  16               	.Ltext0:
  17               	.global	decodeFunctionKey
  19               	decodeFunctionKey:
  20               	.LFB2:
  21               	.LM1:
  22               	/* prologue: frame size=0 */
  23               	/* prologue end (size=0) */
  24               	.LVL0:
  25               	.LM2:
  26 0000 8231      		cpi r24,18
  27 0002 9105      		cpc r25,__zero_reg__
  28 0004 01F4      		brne .+2
  29 0006 00C0      		rjmp .L15
  30               	.LM3:
  31 0008 8331      		cpi r24,19
  32 000a 9105      		cpc r25,__zero_reg__
  33 000c 04F4      		brge .L29
  34 000e 8730      		cpi r24,7
  35 0010 9105      		cpc r25,__zero_reg__
  36 0012 01F4      		brne .+2
  37 0014 00C0      		rjmp .L8
  38 0016 8830      		cpi r24,8
  39 0018 9105      		cpc r25,__zero_reg__
  40 001a 04F4      		brge .L30
  41 001c 8430      		cpi r24,4
  42 001e 9105      		cpc r25,__zero_reg__
  43 0020 01F4      		brne .+2
  44 0022 00C0      		rjmp .L5
  45 0024 8530      		cpi r24,5
  46 0026 9105      		cpc r25,__zero_reg__
  47 0028 04F4      		brge .L31
  48 002a 8130      		cpi r24,1
  49 002c 9105      		cpc r25,__zero_reg__
  50 002e 01F4      		brne .+2
  51 0030 00C0      		rjmp .L3
  52 0032 0397      		sbiw r24,3
  53 0034 01F0      		breq .+2
  54 0036 00C0      		rjmp .L2
  55 0038 00C0      		rjmp .L4
  56               	.L31:
  57 003a 8530      		cpi r24,5
  58 003c 9105      		cpc r25,__zero_reg__
  59 003e 01F4      		brne .+2
  60 0040 00C0      		rjmp .L6
  61 0042 0697      		sbiw r24,6
  62 0044 01F0      		breq .+2
  63 0046 00C0      		rjmp .L2
  64 0048 00C0      		rjmp .L7
  65               	.L30:
  66 004a 8B30      		cpi r24,11
  67 004c 9105      		cpc r25,__zero_reg__
  68 004e 01F4      		brne .+2
  69 0050 00C0      		rjmp .L11
  70 0052 8C30      		cpi r24,12
  71 0054 9105      		cpc r25,__zero_reg__
  72 0056 04F4      		brge .L32
  73 0058 8930      		cpi r24,9
  74 005a 9105      		cpc r25,__zero_reg__
  75 005c 01F4      		brne .+2
  76 005e 00C0      		rjmp .L9
  77 0060 0A97      		sbiw r24,10
  78 0062 01F0      		breq .+2
  79 0064 00C0      		rjmp .L2
  80 0066 00C0      		rjmp .L10
  81               	.L32:
  82 0068 8D30      		cpi r24,13
  83 006a 9105      		cpc r25,__zero_reg__
  84 006c 01F4      		brne .+2
  85 006e 00C0      		rjmp .L13
  86 0070 8D30      		cpi r24,13
  87 0072 9105      		cpc r25,__zero_reg__
  88 0074 04F4      		brge .+2
  89 0076 00C0      		rjmp .L12
  90 0078 4197      		sbiw r24,17
  91 007a 01F0      		breq .+2
  92 007c 00C0      		rjmp .L2
  93 007e 00C0      		rjmp .L14
  94               	.L29:
  95 0080 8637      		cpi r24,118
  96 0082 9105      		cpc r25,__zero_reg__
  97 0084 01F4      		brne .+2
  98 0086 00C0      		rjmp .L22
  99 0088 8737      		cpi r24,119
 100 008a 9105      		cpc r25,__zero_reg__
 101 008c 04F4      		brge .L33
 102 008e 8835      		cpi r24,88
 103 0090 9105      		cpc r25,__zero_reg__
 104 0092 01F4      		brne .+2
 105 0094 00C0      		rjmp .L18
 106 0096 8935      		cpi r24,89
 107 0098 9105      		cpc r25,__zero_reg__
 108 009a 04F4      		brge .L34
 109 009c 8431      		cpi r24,20
 110 009e 9105      		cpc r25,__zero_reg__
 111 00a0 01F4      		brne .+2
 112 00a2 00C0      		rjmp .L16
 113 00a4 8997      		sbiw r24,41
 114 00a6 01F4      		brne .L2
 115 00a8 00C0      		rjmp .L17
 116               	.L34:
 117 00aa 8A35      		cpi r24,90
 118 00ac 9105      		cpc r25,__zero_reg__
 119 00ae 01F4      		brne .+2
 120 00b0 00C0      		rjmp .L20
 121 00b2 8A35      		cpi r24,90
 122 00b4 9105      		cpc r25,__zero_reg__
 123 00b6 04F4      		brge .+2
 124 00b8 00C0      		rjmp .L19
 125 00ba 8636      		cpi r24,102
 126 00bc 9105      		cpc r25,__zero_reg__
 127 00be 01F4      		brne .L2
 128 00c0 00C0      		rjmp .L21
 129               	.L33:
 130 00c2 8E37      		cpi r24,126
 131 00c4 9105      		cpc r25,__zero_reg__
 132 00c6 01F4      		brne .+2
 133 00c8 00C0      		rjmp .L25
 134 00ca 8F37      		cpi r24,127
 135 00cc 9105      		cpc r25,__zero_reg__
 136 00ce 04F4      		brge .L35
 137 00d0 8737      		cpi r24,119
 138 00d2 9105      		cpc r25,__zero_reg__
 139 00d4 01F4      		brne .+2
 140 00d6 00C0      		rjmp .L23
 141 00d8 8837      		cpi r24,120
 142 00da 9105      		cpc r25,__zero_reg__
 143 00dc 01F4      		brne .L2
 144 00de 00C0      		rjmp .L24
 145               	.L35:
 146 00e0 803E      		cpi r24,224
 147 00e2 9105      		cpc r25,__zero_reg__
 148 00e4 01F4      		brne .+2
 149 00e6 00C0      		rjmp .L27
 150 00e8 813E      		cpi r24,225
 151 00ea 9105      		cpc r25,__zero_reg__
 152 00ec 01F4      		brne .+2
 153 00ee 00C0      		rjmp .L28
 154 00f0 8338      		cpi r24,131
 155 00f2 9105      		cpc r25,__zero_reg__
 156 00f4 01F4      		brne .L2
 157 00f6 8AE1      		ldi r24,lo8(26)
 158 00f8 90E0      		ldi r25,hi8(26)
 159               	.LVL1:
 160 00fa 0895      		ret
 161               	.LVL2:
 162               	.L2:
 163 00fc 80E0      		ldi r24,lo8(0)
 164 00fe 90E0      		ldi r25,hi8(0)
 165               	.LVL3:
 166 0100 0895      		ret
 167               	.LVL4:
 168               	.L3:
 169 0102 81E0      		ldi r24,lo8(1)
 170 0104 90E0      		ldi r25,hi8(1)
 171               	.LVL5:
 172 0106 0895      		ret
 173               	.LVL6:
 174               	.L4:
 175               	.LM4:
 176 0108 82E0      		ldi r24,lo8(2)
 177 010a 90E0      		ldi r25,hi8(2)
 178               	.LVL7:
 179 010c 0895      		ret
 180               	.LVL8:
 181               	.L5:
 182               	.LM5:
 183 010e 83E0      		ldi r24,lo8(3)
 184 0110 90E0      		ldi r25,hi8(3)
 185               	.LVL9:
 186 0112 0895      		ret
 187               	.LVL10:
 188               	.L6:
 189               	.LM6:
 190 0114 84E0      		ldi r24,lo8(4)
 191 0116 90E0      		ldi r25,hi8(4)
 192               	.LVL11:
 193 0118 0895      		ret
 194               	.LVL12:
 195               	.L7:
 196               	.LM7:
 197 011a 85E0      		ldi r24,lo8(5)
 198 011c 90E0      		ldi r25,hi8(5)
 199               	.LVL13:
 200 011e 0895      		ret
 201               	.LVL14:
 202               	.L8:
 203               	.LM8:
 204 0120 86E0      		ldi r24,lo8(6)
 205 0122 90E0      		ldi r25,hi8(6)
 206               	.LVL15:
 207 0124 0895      		ret
 208               	.LVL16:
 209               	.L9:
 210               	.LM9:
 211 0126 87E0      		ldi r24,lo8(7)
 212 0128 90E0      		ldi r25,hi8(7)
 213               	.LVL17:
 214 012a 0895      		ret
 215               	.LVL18:
 216               	.L10:
 217               	.LM10:
 218 012c 88E0      		ldi r24,lo8(8)
 219 012e 90E0      		ldi r25,hi8(8)
 220               	.LVL19:
 221 0130 0895      		ret
 222               	.LVL20:
 223               	.L11:
 224               	.LM11:
 225 0132 89E0      		ldi r24,lo8(9)
 226 0134 90E0      		ldi r25,hi8(9)
 227               	.LVL21:
 228 0136 0895      		ret
 229               	.LVL22:
 230               	.L12:
 231               	.LM12:
 232 0138 8AE0      		ldi r24,lo8(10)
 233 013a 90E0      		ldi r25,hi8(10)
 234               	.LVL23:
 235 013c 0895      		ret
 236               	.LVL24:
 237               	.L13:
 238               	.LM13:
 239 013e 8BE0      		ldi r24,lo8(11)
 240 0140 90E0      		ldi r25,hi8(11)
 241               	.LVL25:
 242 0142 0895      		ret
 243               	.LVL26:
 244               	.L14:
 245               	.LM14:
 246 0144 8CE0      		ldi r24,lo8(12)
 247 0146 90E0      		ldi r25,hi8(12)
 248               	.LVL27:
 249 0148 0895      		ret
 250               	.LVL28:
 251               	.L15:
 252               	.LM15:
 253 014a 8DE0      		ldi r24,lo8(13)
 254 014c 90E0      		ldi r25,hi8(13)
 255               	.LVL29:
 256 014e 0895      		ret
 257               	.LVL30:
 258               	.L16:
 259               	.LM16:
 260 0150 8EE0      		ldi r24,lo8(14)
 261 0152 90E0      		ldi r25,hi8(14)
 262               	.LVL31:
 263 0154 0895      		ret
 264               	.LVL32:
 265               	.L17:
 266               	.LM17:
 267 0156 8FE0      		ldi r24,lo8(15)
 268 0158 90E0      		ldi r25,hi8(15)
 269               	.LVL33:
 270 015a 0895      		ret
 271               	.LVL34:
 272               	.L18:
 273               	.LM18:
 274 015c 80E1      		ldi r24,lo8(16)
 275 015e 90E0      		ldi r25,hi8(16)
 276               	.LVL35:
 277 0160 0895      		ret
 278               	.LVL36:
 279               	.L19:
 280               	.LM19:
 281 0162 81E1      		ldi r24,lo8(17)
 282 0164 90E0      		ldi r25,hi8(17)
 283               	.LVL37:
 284 0166 0895      		ret
 285               	.LVL38:
 286               	.L20:
 287               	.LM20:
 288 0168 82E1      		ldi r24,lo8(18)
 289 016a 90E0      		ldi r25,hi8(18)
 290               	.LVL39:
 291 016c 0895      		ret
 292               	.LVL40:
 293               	.L21:
 294               	.LM21:
 295 016e 83E1      		ldi r24,lo8(19)
 296 0170 90E0      		ldi r25,hi8(19)
 297               	.LVL41:
 298 0172 0895      		ret
 299               	.LVL42:
 300               	.L27:
 301               	.LM22:
 302 0174 84E1      		ldi r24,lo8(20)
 303 0176 90E0      		ldi r25,hi8(20)
 304               	.LVL43:
 305 0178 0895      		ret
 306               	.LVL44:
 307               	.L28:
 308               	.LM23:
 309 017a 85E1      		ldi r24,lo8(21)
 310 017c 90E0      		ldi r25,hi8(21)
 311               	.LVL45:
 312 017e 0895      		ret
 313               	.LVL46:
 314               	.L22:
 315               	.LM24:
 316 0180 86E1      		ldi r24,lo8(22)
 317 0182 90E0      		ldi r25,hi8(22)
 318               	.LVL47:
 319 0184 0895      		ret
 320               	.LVL48:
 321               	.L23:
 322               	.LM25:
 323 0186 87E1      		ldi r24,lo8(23)
 324 0188 90E0      		ldi r25,hi8(23)
 325               	.LVL49:
 326 018a 0895      		ret
 327               	.LVL50:
 328               	.L24:
 329               	.LM26:
 330 018c 88E1      		ldi r24,lo8(24)
 331 018e 90E0      		ldi r25,hi8(24)
 332               	.LVL51:
 333 0190 0895      		ret
 334               	.LVL52:
 335               	.L25:
 336               	.LM27:
 337 0192 89E1      		ldi r24,lo8(25)
 338 0194 90E0      		ldi r25,hi8(25)
 339               	.LVL53:
 340               	.LM28:
 341 0196 0895      		ret
 342               	/* epilogue: frame size=0 */
 343               	/* epilogue: noreturn */
 344               	/* epilogue end (size=0) */
 345               	/* function decodeFunctionKey size 209 (209) */
 346               	.LFE2:
 348               	.global	decodeChar
 350               	decodeChar:
 351               	.LFB3:
 352               	.LM29:
 353               	/* prologue: frame size=0 */
 354               	/* prologue end (size=0) */
 355               	.LVL54:
 356               	.LM30:
 357 0198 8234      		cpi r24,66
 358 019a 9105      		cpc r25,__zero_reg__
 359 019c 01F4      		brne .+2
 360 019e 00C0      		rjmp .L73
 361               	.LM31:
 362 01a0 8334      		cpi r24,67
 363 01a2 9105      		cpc r25,__zero_reg__
 364 01a4 04F0      		brlt .+2
 365 01a6 00C0      		rjmp .L95
 366 01a8 8A32      		cpi r24,42
 367 01aa 9105      		cpc r25,__zero_reg__
 368 01ac 01F4      		brne .+2
 369 01ae 00C0      		rjmp .L56
 370 01b0 8B32      		cpi r24,43
 371 01b2 9105      		cpc r25,__zero_reg__
 372 01b4 04F0      		brlt .+2
 373 01b6 00C0      		rjmp .L96
 374 01b8 8D31      		cpi r24,29
 375 01ba 9105      		cpc r25,__zero_reg__
 376 01bc 01F4      		brne .+2
 377 01be 00C0      		rjmp .L47
 378 01c0 8E31      		cpi r24,30
 379 01c2 9105      		cpc r25,__zero_reg__
 380 01c4 04F4      		brge .L97
 381 01c6 8631      		cpi r24,22
 382 01c8 9105      		cpc r25,__zero_reg__
 383 01ca 01F4      		brne .+2
 384 01cc 00C0      		rjmp .L43
 385 01ce 8731      		cpi r24,23
 386 01d0 9105      		cpc r25,__zero_reg__
 387 01d2 04F4      		brge .L98
 388 01d4 8E30      		cpi r24,14
 389 01d6 9105      		cpc r25,__zero_reg__
 390 01d8 01F4      		brne .+2
 391 01da 00C0      		rjmp .L41
 392 01dc 8531      		cpi r24,21
 393 01de 9105      		cpc r25,__zero_reg__
 394 01e0 01F4      		brne .+2
 395 01e2 00C0      		rjmp .L42
 396 01e4 0D97      		sbiw r24,13
 397 01e6 01F0      		breq .+2
 398 01e8 00C0      		rjmp .L39
 399 01ea 00C0      		rjmp .L40
 400               	.L98:
 401 01ec 8B31      		cpi r24,27
 402 01ee 9105      		cpc r25,__zero_reg__
 403 01f0 01F4      		brne .+2
 404 01f2 00C0      		rjmp .L45
 405 01f4 8C31      		cpi r24,28
 406 01f6 9105      		cpc r25,__zero_reg__
 407 01f8 04F0      		brlt .+2
 408 01fa 00C0      		rjmp .L46
 409 01fc 4A97      		sbiw r24,26
 410 01fe 01F0      		breq .+2
 411 0200 00C0      		rjmp .L39
 412 0202 00C0      		rjmp .L44
 413               	.L97:
 414 0204 8332      		cpi r24,35
 415 0206 9105      		cpc r25,__zero_reg__
 416 0208 01F4      		brne .+2
 417 020a 00C0      		rjmp .L51
 418 020c 8432      		cpi r24,36
 419 020e 9105      		cpc r25,__zero_reg__
 420 0210 04F4      		brge .L99
 421 0212 8132      		cpi r24,33
 422 0214 9105      		cpc r25,__zero_reg__
 423 0216 01F4      		brne .+2
 424 0218 00C0      		rjmp .L49
 425 021a 8232      		cpi r24,34
 426 021c 9105      		cpc r25,__zero_reg__
 427 021e 04F0      		brlt .+2
 428 0220 00C0      		rjmp .L50
 429 0222 4E97      		sbiw r24,30
 430 0224 01F0      		breq .+2
 431 0226 00C0      		rjmp .L39
 432 0228 00C0      		rjmp .L48
 433               	.L99:
 434 022a 8532      		cpi r24,37
 435 022c 9105      		cpc r25,__zero_reg__
 436 022e 01F4      		brne .+2
 437 0230 00C0      		rjmp .L53
 438 0232 8532      		cpi r24,37
 439 0234 9105      		cpc r25,__zero_reg__
 440 0236 04F4      		brge .+2
 441 0238 00C0      		rjmp .L52
 442 023a 8632      		cpi r24,38
 443 023c 9105      		cpc r25,__zero_reg__
 444 023e 01F4      		brne .+2
 445 0240 00C0      		rjmp .L54
 446 0242 8997      		sbiw r24,41
 447 0244 01F0      		breq .+2
 448 0246 00C0      		rjmp .L39
 449 0248 00C0      		rjmp .L55
 450               	.L96:
 451 024a 8433      		cpi r24,52
 452 024c 9105      		cpc r25,__zero_reg__
 453 024e 01F4      		brne .+2
 454 0250 00C0      		rjmp .L64
 455 0252 8533      		cpi r24,53
 456 0254 9105      		cpc r25,__zero_reg__
 457 0256 04F4      		brge .L100
 458 0258 8E32      		cpi r24,46
 459 025a 9105      		cpc r25,__zero_reg__
 460 025c 01F4      		brne .+2
 461 025e 00C0      		rjmp .L60
 462 0260 8F32      		cpi r24,47
 463 0262 9105      		cpc r25,__zero_reg__
 464 0264 04F4      		brge .L101
 465 0266 8C32      		cpi r24,44
 466 0268 9105      		cpc r25,__zero_reg__
 467 026a 01F4      		brne .+2
 468 026c 00C0      		rjmp .L58
 469 026e 8D97      		sbiw r24,45
 470 0270 04F0      		brlt .+2
 471 0272 00C0      		rjmp .L59
 472 0274 00C0      		rjmp .L114
 473               	.L101:
 474 0276 8233      		cpi r24,50
 475 0278 9105      		cpc r25,__zero_reg__
 476 027a 01F4      		brne .+2
 477 027c 00C0      		rjmp .L62
 478 027e 8333      		cpi r24,51
 479 0280 9105      		cpc r25,__zero_reg__
 480 0282 04F0      		brlt .+2
 481 0284 00C0      		rjmp .L63
 482 0286 C197      		sbiw r24,49
 483 0288 01F0      		breq .+2
 484 028a 00C0      		rjmp .L39
 485 028c 00C0      		rjmp .L61
 486               	.L100:
 487 028e 8B33      		cpi r24,59
 488 0290 9105      		cpc r25,__zero_reg__
 489 0292 01F4      		brne .+2
 490 0294 00C0      		rjmp .L68
 491 0296 8C33      		cpi r24,60
 492 0298 9105      		cpc r25,__zero_reg__
 493 029a 04F4      		brge .L102
 494 029c 8633      		cpi r24,54
 495 029e 9105      		cpc r25,__zero_reg__
 496 02a0 01F4      		brne .+2
 497 02a2 00C0      		rjmp .L66
 498 02a4 8633      		cpi r24,54
 499 02a6 9105      		cpc r25,__zero_reg__
 500 02a8 04F4      		brge .+2
 501 02aa 00C0      		rjmp .L65
 502 02ac CA97      		sbiw r24,58
 503 02ae 01F0      		breq .+2
 504 02b0 00C0      		rjmp .L39
 505 02b2 00C0      		rjmp .L67
 506               	.L102:
 507 02b4 8D33      		cpi r24,61
 508 02b6 9105      		cpc r25,__zero_reg__
 509 02b8 01F4      		brne .+2
 510 02ba 00C0      		rjmp .L70
 511 02bc 8D33      		cpi r24,61
 512 02be 9105      		cpc r25,__zero_reg__
 513 02c0 04F4      		brge .+2
 514 02c2 00C0      		rjmp .L69
 515 02c4 8E33      		cpi r24,62
 516 02c6 9105      		cpc r25,__zero_reg__
 517 02c8 01F4      		brne .+2
 518 02ca 00C0      		rjmp .L71
 519 02cc 8134      		cpi r24,65
 520 02ce 9105      		cpc r25,__zero_reg__
 521 02d0 01F0      		breq .+2
 522 02d2 00C0      		rjmp .L39
 523 02d4 00C0      		rjmp .L72
 524               	.L95:
 525 02d6 8136      		cpi r24,97
 526 02d8 9105      		cpc r25,__zero_reg__
 527 02da 01F4      		brne .+2
 528 02dc 00C0      		rjmp .L90
 529 02de 8236      		cpi r24,98
 530 02e0 9105      		cpc r25,__zero_reg__
 531 02e2 04F0      		brlt .+2
 532 02e4 00C0      		rjmp .L103
 533 02e6 8C34      		cpi r24,76
 534 02e8 9105      		cpc r25,__zero_reg__
 535 02ea 01F4      		brne .+2
 536 02ec 00C0      		rjmp .L81
 537 02ee 8D34      		cpi r24,77
 538 02f0 9105      		cpc r25,__zero_reg__
 539 02f2 04F4      		brge .L104
 540 02f4 8634      		cpi r24,70
 541 02f6 9105      		cpc r25,__zero_reg__
 542 02f8 01F4      		brne .+2
 543 02fa 00C0      		rjmp .L77
 544 02fc 8734      		cpi r24,71
 545 02fe 9105      		cpc r25,__zero_reg__
 546 0300 04F4      		brge .L105
 547 0302 8434      		cpi r24,68
 548 0304 9105      		cpc r25,__zero_reg__
 549 0306 01F4      		brne .+2
 550 0308 00C0      		rjmp .L75
 551 030a 8534      		cpi r24,69
 552 030c 9105      		cpc r25,__zero_reg__
 553 030e 04F0      		brlt .+2
 554 0310 00C0      		rjmp .L76
 555 0312 00C0      		rjmp .L115
 556               	.L105:
 557 0314 8A34      		cpi r24,74
 558 0316 9105      		cpc r25,__zero_reg__
 559 0318 01F4      		brne .+2
 560 031a 00C0      		rjmp .L79
 561 031c 8B34      		cpi r24,75
 562 031e 9105      		cpc r25,__zero_reg__
 563 0320 04F0      		brlt .+2
 564 0322 00C0      		rjmp .L80
 565 0324 8934      		cpi r24,73
 566 0326 9105      		cpc r25,__zero_reg__
 567 0328 01F0      		breq .+2
 568 032a 00C0      		rjmp .L39
 569 032c 00C0      		rjmp .L78
 570               	.L104:
 571 032e 8435      		cpi r24,84
 572 0330 9105      		cpc r25,__zero_reg__
 573 0332 01F4      		brne .+2
 574 0334 00C0      		rjmp .L85
 575 0336 8535      		cpi r24,85
 576 0338 9105      		cpc r25,__zero_reg__
 577 033a 04F4      		brge .L106
 578 033c 8E34      		cpi r24,78
 579 033e 9105      		cpc r25,__zero_reg__
 580 0340 01F4      		brne .+2
 581 0342 00C0      		rjmp .L83
 582 0344 8E34      		cpi r24,78
 583 0346 9105      		cpc r25,__zero_reg__
 584 0348 04F4      		brge .+2
 585 034a 00C0      		rjmp .L82
 586 034c 8235      		cpi r24,82
 587 034e 9105      		cpc r25,__zero_reg__
 588 0350 01F0      		breq .+2
 589 0352 00C0      		rjmp .L39
 590 0354 00C0      		rjmp .L84
 591               	.L106:
 592 0356 8A35      		cpi r24,90
 593 0358 9105      		cpc r25,__zero_reg__
 594 035a 01F4      		brne .+2
 595 035c 00C0      		rjmp .L87
 596 035e 8B35      		cpi r24,91
 597 0360 9105      		cpc r25,__zero_reg__
 598 0362 04F4      		brge .L107
 599 0364 8535      		cpi r24,85
 600 0366 9105      		cpc r25,__zero_reg__
 601 0368 01F0      		breq .+2
 602 036a 00C0      		rjmp .L39
 603 036c 00C0      		rjmp .L86
 604               	.L107:
 605 036e 8B35      		cpi r24,91
 606 0370 9105      		cpc r25,__zero_reg__
 607 0372 01F4      		brne .+2
 608 0374 00C0      		rjmp .L88
 609 0376 8D35      		cpi r24,93
 610 0378 9105      		cpc r25,__zero_reg__
 611 037a 01F0      		breq .+2
 612 037c 00C0      		rjmp .L39
 613 037e 00C0      		rjmp .L89
 614               	.L103:
 615 0380 8437      		cpi r24,116
 616 0382 9105      		cpc r25,__zero_reg__
 617 0384 01F4      		brne .+2
 618 0386 00C0      		rjmp .L66
 619 0388 8537      		cpi r24,117
 620 038a 9105      		cpc r25,__zero_reg__
 621 038c 04F4      		brge .L108
 622 038e 8C36      		cpi r24,108
 623 0390 9105      		cpc r25,__zero_reg__
 624 0392 01F4      		brne .+2
 625 0394 00C0      		rjmp .L70
 626 0396 8D36      		cpi r24,109
 627 0398 9105      		cpc r25,__zero_reg__
 628 039a 04F4      		brge .L109
 629 039c 8936      		cpi r24,105
 630 039e 9105      		cpc r25,__zero_reg__
 631 03a0 01F4      		brne .+2
 632 03a2 00C0      		rjmp .L43
 633 03a4 8B36      		cpi r24,107
 634 03a6 9105      		cpc r25,__zero_reg__
 635 03a8 01F4      		brne .+2
 636 03aa 00C0      		rjmp .L53
 637 03ac 8636      		cpi r24,102
 638 03ae 9105      		cpc r25,__zero_reg__
 639 03b0 01F4      		brne .L39
 640 03b2 00C0      		rjmp .L91
 641               	.L109:
 642 03b4 8137      		cpi r24,113
 643 03b6 9105      		cpc r25,__zero_reg__
 644 03b8 01F4      		brne .+2
 645 03ba 00C0      		rjmp .L72
 646 03bc 8237      		cpi r24,114
 647 03be 9105      		cpc r25,__zero_reg__
 648 03c0 04F4      		brge .L110
 649 03c2 8037      		cpi r24,112
 650 03c4 9105      		cpc r25,__zero_reg__
 651 03c6 01F4      		brne .L39
 652 03c8 00C0      		rjmp .L76
 653               	.L110:
 654 03ca 8237      		cpi r24,114
 655 03cc 9105      		cpc r25,__zero_reg__
 656 03ce 01F4      		brne .+2
 657 03d0 00C0      		rjmp .L48
 658 03d2 8337      		cpi r24,115
 659 03d4 9105      		cpc r25,__zero_reg__
 660 03d6 01F4      		brne .L39
 661 03d8 00C0      		rjmp .L60
 662               	.L108:
 663 03da 8A37      		cpi r24,122
 664 03dc 9105      		cpc r25,__zero_reg__
 665 03de 01F4      		brne .+2
 666 03e0 00C0      		rjmp .L54
 667 03e2 8B37      		cpi r24,123
 668 03e4 9105      		cpc r25,__zero_reg__
 669 03e6 04F4      		brge .L111
 670 03e8 8637      		cpi r24,118
 671 03ea 9105      		cpc r25,__zero_reg__
 672 03ec 01F4      		brne .+2
 673 03ee 00C0      		rjmp .L92
 674 03f0 8637      		cpi r24,118
 675 03f2 9105      		cpc r25,__zero_reg__
 676 03f4 04F4      		brge .+2
 677 03f6 00C0      		rjmp .L71
 678 03f8 8937      		cpi r24,121
 679 03fa 9105      		cpc r25,__zero_reg__
 680 03fc 01F4      		brne .L39
 681 03fe 00C0      		rjmp .L88
 682               	.L111:
 683 0400 8C37      		cpi r24,124
 684 0402 9105      		cpc r25,__zero_reg__
 685 0404 01F4      		brne .+2
 686 0406 00C0      		rjmp .L93
 687 0408 8C37      		cpi r24,124
 688 040a 9105      		cpc r25,__zero_reg__
 689 040c 04F4      		brge .+2
 690 040e 00C0      		rjmp .L79
 691 0410 8D37      		cpi r24,125
 692 0412 9105      		cpc r25,__zero_reg__
 693 0414 01F4      		brne .+2
 694 0416 00C0      		rjmp .L77
 695 0418 803E      		cpi r24,224
 696 041a 9105      		cpc r25,__zero_reg__
 697 041c 01F4      		brne .L39
 698 041e 8AE0      		ldi r24,lo8(10)
 699 0420 90E0      		ldi r25,hi8(10)
 700               	.LVL55:
 701 0422 0895      		ret
 702               	.LVL56:
 703               	.L39:
 704 0424 80E0      		ldi r24,lo8(0)
 705 0426 90E0      		ldi r25,hi8(0)
 706               	.LVL57:
 707 0428 0895      		ret
 708               	.LVL58:
 709               	.L40:
 710 042a 89E0      		ldi r24,lo8(9)
 711 042c 90E0      		ldi r25,hi8(9)
 712               	.LVL59:
 713 042e 0895      		ret
 714               	.LVL60:
 715               	.L41:
 716               	.LM32:
 717 0430 8EE5      		ldi r24,lo8(94)
 718 0432 90E0      		ldi r25,hi8(94)
 719               	.LVL61:
 720 0434 0895      		ret
 721               	.LVL62:
 722               	.L42:
 723               	.LM33:
 724 0436 81E7      		ldi r24,lo8(113)
 725 0438 90E0      		ldi r25,hi8(113)
 726               	.LVL63:
 727 043a 0895      		ret
 728               	.LVL64:
 729               	.L44:
 730               	.LM34:
 731 043c 89E7      		ldi r24,lo8(121)
 732 043e 90E0      		ldi r25,hi8(121)
 733               	.LVL65:
 734 0440 0895      		ret
 735               	.LVL66:
 736               	.L45:
 737               	.LM35:
 738 0442 83E7      		ldi r24,lo8(115)
 739 0444 90E0      		ldi r25,hi8(115)
 740               	.LVL67:
 741 0446 0895      		ret
 742               	.LVL68:
 743               	.L46:
 744               	.LM36:
 745 0448 81E6      		ldi r24,lo8(97)
 746 044a 90E0      		ldi r25,hi8(97)
 747               	.LVL69:
 748 044c 0895      		ret
 749               	.LVL70:
 750               	.L47:
 751               	.LM37:
 752 044e 87E7      		ldi r24,lo8(119)
 753 0450 90E0      		ldi r25,hi8(119)
 754               	.LVL71:
 755 0452 0895      		ret
 756               	.LVL72:
 757               	.L49:
 758               	.LM38:
 759 0454 83E6      		ldi r24,lo8(99)
 760 0456 90E0      		ldi r25,hi8(99)
 761               	.LVL73:
 762 0458 0895      		ret
 763               	.LVL74:
 764               	.L50:
 765               	.LM39:
 766 045a 88E7      		ldi r24,lo8(120)
 767 045c 90E0      		ldi r25,hi8(120)
 768               	.LVL75:
 769 045e 0895      		ret
 770               	.LVL76:
 771               	.L51:
 772               	.LM40:
 773 0460 84E6      		ldi r24,lo8(100)
 774 0462 90E0      		ldi r25,hi8(100)
 775               	.LVL77:
 776 0464 0895      		ret
 777               	.LVL78:
 778               	.L52:
 779               	.LM41:
 780 0466 85E6      		ldi r24,lo8(101)
 781 0468 90E0      		ldi r25,hi8(101)
 782               	.LVL79:
 783 046a 0895      		ret
 784               	.LVL80:
 785               	.L55:
 786               	.LM42:
 787 046c 80E2      		ldi r24,lo8(32)
 788 046e 90E0      		ldi r25,hi8(32)
 789               	.LVL81:
 790 0470 0895      		ret
 791               	.LVL82:
 792               	.L56:
 793               	.LM43:
 794 0472 86E7      		ldi r24,lo8(118)
 795 0474 90E0      		ldi r25,hi8(118)
 796               	.LVL83:
 797 0476 0895      		ret
 798               	.LVL84:
 799               	.L114:
 800               	.LM44:
 801 0478 86E6      		ldi r24,lo8(102)
 802 047a 90E0      		ldi r25,hi8(102)
 803               	.LVL85:
 804 047c 0895      		ret
 805               	.LVL86:
 806               	.L58:
 807               	.LM45:
 808 047e 84E7      		ldi r24,lo8(116)
 809 0480 90E0      		ldi r25,hi8(116)
 810               	.LVL87:
 811 0482 0895      		ret
 812               	.LVL88:
 813               	.L59:
 814               	.LM46:
 815 0484 82E7      		ldi r24,lo8(114)
 816 0486 90E0      		ldi r25,hi8(114)
 817               	.LVL89:
 818 0488 0895      		ret
 819               	.LVL90:
 820               	.L61:
 821               	.LM47:
 822 048a 8EE6      		ldi r24,lo8(110)
 823 048c 90E0      		ldi r25,hi8(110)
 824               	.LVL91:
 825 048e 0895      		ret
 826               	.LVL92:
 827               	.L62:
 828               	.LM48:
 829 0490 82E6      		ldi r24,lo8(98)
 830 0492 90E0      		ldi r25,hi8(98)
 831               	.LVL93:
 832 0494 0895      		ret
 833               	.LVL94:
 834               	.L63:
 835               	.LM49:
 836 0496 88E6      		ldi r24,lo8(104)
 837 0498 90E0      		ldi r25,hi8(104)
 838               	.LVL95:
 839 049a 0895      		ret
 840               	.LVL96:
 841               	.L64:
 842               	.LM50:
 843 049c 87E6      		ldi r24,lo8(103)
 844 049e 90E0      		ldi r25,hi8(103)
 845               	.LVL97:
 846 04a0 0895      		ret
 847               	.LVL98:
 848               	.L65:
 849               	.LM51:
 850 04a2 8AE7      		ldi r24,lo8(122)
 851 04a4 90E0      		ldi r25,hi8(122)
 852               	.LVL99:
 853 04a6 0895      		ret
 854               	.LVL100:
 855               	.L67:
 856               	.LM52:
 857 04a8 8DE6      		ldi r24,lo8(109)
 858 04aa 90E0      		ldi r25,hi8(109)
 859               	.LVL101:
 860 04ac 0895      		ret
 861               	.LVL102:
 862               	.L68:
 863               	.LM53:
 864 04ae 8AE6      		ldi r24,lo8(106)
 865 04b0 90E0      		ldi r25,hi8(106)
 866               	.LVL103:
 867 04b2 0895      		ret
 868               	.LVL104:
 869               	.L69:
 870               	.LM54:
 871 04b4 85E7      		ldi r24,lo8(117)
 872 04b6 90E0      		ldi r25,hi8(117)
 873               	.LVL105:
 874 04b8 0895      		ret
 875               	.LVL106:
 876               	.L73:
 877               	.LM55:
 878 04ba 8BE6      		ldi r24,lo8(107)
 879 04bc 90E0      		ldi r25,hi8(107)
 880               	.LVL107:
 881 04be 0895      		ret
 882               	.LVL108:
 883               	.L115:
 884               	.LM56:
 885 04c0 89E6      		ldi r24,lo8(105)
 886 04c2 90E0      		ldi r25,hi8(105)
 887               	.LVL109:
 888 04c4 0895      		ret
 889               	.LVL110:
 890               	.L75:
 891               	.LM57:
 892 04c6 8FE6      		ldi r24,lo8(111)
 893 04c8 90E0      		ldi r25,hi8(111)
 894               	.LVL111:
 895 04ca 0895      		ret
 896               	.LVL112:
 897               	.L78:
 898               	.LM58:
 899 04cc 8EE2      		ldi r24,lo8(46)
 900 04ce 90E0      		ldi r25,hi8(46)
 901               	.LVL113:
 902 04d0 0895      		ret
 903               	.LVL114:
 904               	.L80:
 905               	.LM59:
 906 04d2 8CE6      		ldi r24,lo8(108)
 907 04d4 90E0      		ldi r25,hi8(108)
 908               	.LVL115:
 909 04d6 0895      		ret
 910               	.LVL116:
 911               	.L81:
 912               	.LM60:
 913 04d8 86EF      		ldi r24,lo8(246)
 914 04da 90E0      		ldi r25,hi8(246)
 915               	.LVL117:
 916 04dc 0895      		ret
 917               	.LVL118:
 918               	.L82:
 919               	.LM61:
 920 04de 80E7      		ldi r24,lo8(112)
 921 04e0 90E0      		ldi r25,hi8(112)
 922               	.LVL119:
 923 04e2 0895      		ret
 924               	.LVL120:
 925               	.L83:
 926               	.LM62:
 927 04e4 8FED      		ldi r24,lo8(223)
 928 04e6 90E0      		ldi r25,hi8(223)
 929               	.LVL121:
 930 04e8 0895      		ret
 931               	.LVL122:
 932               	.L84:
 933               	.LM63:
 934 04ea 84EE      		ldi r24,lo8(228)
 935 04ec 90E0      		ldi r25,hi8(228)
 936               	.LVL123:
 937 04ee 0895      		ret
 938               	.LVL124:
 939               	.L85:
 940               	.LM64:
 941 04f0 8CEF      		ldi r24,lo8(252)
 942 04f2 90E0      		ldi r25,hi8(252)
 943               	.LVL125:
 944 04f4 0895      		ret
 945               	.LVL126:
 946               	.L86:
 947               	.LM65:
 948 04f6 80E6      		ldi r24,lo8(96)
 949 04f8 90E0      		ldi r25,hi8(96)
 950               	.LVL127:
 951 04fa 0895      		ret
 952               	.LVL128:
 953               	.L87:
 954               	.LM66:
 955 04fc 8DE0      		ldi r24,lo8(13)
 956 04fe 90E0      		ldi r25,hi8(13)
 957               	.LVL129:
 958 0500 0895      		ret
 959               	.LVL130:
 960               	.L89:
 961               	.LM67:
 962 0502 83E2      		ldi r24,lo8(35)
 963 0504 90E0      		ldi r25,hi8(35)
 964               	.LVL131:
 965 0506 0895      		ret
 966               	.LVL132:
 967               	.L90:
 968               	.LM68:
 969 0508 8CE3      		ldi r24,lo8(60)
 970 050a 90E0      		ldi r25,hi8(60)
 971               	.LVL133:
 972 050c 0895      		ret
 973               	.LVL134:
 974               	.L91:
 975               	.LM69:
 976 050e 88E0      		ldi r24,lo8(8)
 977 0510 90E0      		ldi r25,hi8(8)
 978               	.LVL135:
 979 0512 0895      		ret
 980               	.LVL136:
 981               	.L92:
 982               	.LM70:
 983 0514 8BE1      		ldi r24,lo8(27)
 984 0516 90E0      		ldi r25,hi8(27)
 985               	.LVL137:
 986 0518 0895      		ret
 987               	.LVL138:
 988               	.L93:
 989               	.LM71:
 990 051a 8AE2      		ldi r24,lo8(42)
 991 051c 90E0      		ldi r25,hi8(42)
 992               	.LVL139:
 993 051e 0895      		ret
 994               	.LVL140:
 995               	.L43:
 996               	.LM72:
 997 0520 81E3      		ldi r24,lo8(49)
 998 0522 90E0      		ldi r25,hi8(49)
 999               	.LVL141:
 1000 0524 0895      		ret
 1001               	.LVL142:
 1002               	.L48:
 1003 0526 82E3      		ldi r24,lo8(50)
 1004 0528 90E0      		ldi r25,hi8(50)
 1005               	.LVL143:
 1006 052a 0895      		ret
 1007               	.LVL144:
 1008               	.L53:
 1009 052c 84E3      		ldi r24,lo8(52)
 1010 052e 90E0      		ldi r25,hi8(52)
 1011               	.LVL145:
 1012 0530 0895      		ret
 1013               	.LVL146:
 1014               	.L54:
 1015 0532 83E3      		ldi r24,lo8(51)
 1016 0534 90E0      		ldi r25,hi8(51)
 1017               	.LVL147:
 1018 0536 0895      		ret
 1019               	.LVL148:
 1020               	.L60:
 1021 0538 85E3      		ldi r24,lo8(53)
 1022 053a 90E0      		ldi r25,hi8(53)
 1023               	.LVL149:
 1024 053c 0895      		ret
 1025               	.LVL150:
 1026               	.L66:
 1027 053e 86E3      		ldi r24,lo8(54)
 1028 0540 90E0      		ldi r25,hi8(54)
 1029               	.LVL151:
 1030 0542 0895      		ret
 1031               	.LVL152:
 1032               	.L70:
 1033 0544 87E3      		ldi r24,lo8(55)
 1034 0546 90E0      		ldi r25,hi8(55)
 1035               	.LVL153:
 1036 0548 0895      		ret
 1037               	.LVL154:
 1038               	.L71:
 1039 054a 88E3      		ldi r24,lo8(56)
 1040 054c 90E0      		ldi r25,hi8(56)
 1041               	.LVL155:
 1042 054e 0895      		ret
 1043               	.LVL156:
 1044               	.L72:
 1045 0550 8CE2      		ldi r24,lo8(44)
 1046 0552 90E0      		ldi r25,hi8(44)
 1047               	.LVL157:
 1048 0554 0895      		ret
 1049               	.LVL158:
 1050               	.L76:
 1051 0556 80E3      		ldi r24,lo8(48)
 1052 0558 90E0      		ldi r25,hi8(48)
 1053               	.LVL159:
 1054 055a 0895      		ret
 1055               	.LVL160:
 1056               	.L77:
 1057 055c 89E3      		ldi r24,lo8(57)
 1058 055e 90E0      		ldi r25,hi8(57)
 1059               	.LVL161:
 1060 0560 0895      		ret
 1061               	.LVL162:
 1062               	.L79:
 1063 0562 8DE2      		ldi r24,lo8(45)
 1064 0564 90E0      		ldi r25,hi8(45)
 1065               	.LVL163:
 1066 0566 0895      		ret
 1067               	.LVL164:
 1068               	.L88:
 1069 0568 8BE2      		ldi r24,lo8(43)
 1070 056a 90E0      		ldi r25,hi8(43)
 1071               	.LVL165:
 1072               	.LM73:
 1073 056c 0895      		ret
 1074               	/* epilogue: frame size=0 */
 1075               	/* epilogue: noreturn */
 1076               	/* epilogue end (size=0) */
 1077               	/* function decodeChar size 498 (498) */
 1078               	.LFE3:
 1080               	.global	decodeShiftedChar
 1082               	decodeShiftedChar:
 1083               	.LFB4:
 1084               	.LM74:
 1085               	/* prologue: frame size=0 */
 1086               	/* prologue end (size=0) */
 1087               	.LVL166:
 1088               	.LM75:
 1089 056e 8234      		cpi r24,66
 1090 0570 9105      		cpc r25,__zero_reg__
 1091 0572 01F4      		brne .+2
 1092 0574 00C0      		rjmp .L151
 1093               	.LM76:
 1094 0576 8334      		cpi r24,67
 1095 0578 9105      		cpc r25,__zero_reg__
 1096 057a 04F0      		brlt .+2
 1097 057c 00C0      		rjmp .L185
 1098 057e 8A32      		cpi r24,42
 1099 0580 9105      		cpc r25,__zero_reg__
 1100 0582 01F4      		brne .+2
 1101 0584 00C0      		rjmp .L134
 1102 0586 8B32      		cpi r24,43
 1103 0588 9105      		cpc r25,__zero_reg__
 1104 058a 04F0      		brlt .+2
 1105 058c 00C0      		rjmp .L186
 1106 058e 8D31      		cpi r24,29
 1107 0590 9105      		cpc r25,__zero_reg__
 1108 0592 01F4      		brne .+2
 1109 0594 00C0      		rjmp .L125
 1110 0596 8E31      		cpi r24,30
 1111 0598 9105      		cpc r25,__zero_reg__
 1112 059a 04F4      		brge .L187
 1113 059c 8631      		cpi r24,22
 1114 059e 9105      		cpc r25,__zero_reg__
 1115 05a0 01F4      		brne .+2
 1116 05a2 00C0      		rjmp .L121
 1117 05a4 8731      		cpi r24,23
 1118 05a6 9105      		cpc r25,__zero_reg__
 1119 05a8 04F4      		brge .L188
 1120 05aa 8E30      		cpi r24,14
 1121 05ac 9105      		cpc r25,__zero_reg__
 1122 05ae 01F4      		brne .+2
 1123 05b0 00C0      		rjmp .L119
 1124 05b2 8531      		cpi r24,21
 1125 05b4 9105      		cpc r25,__zero_reg__
 1126 05b6 01F4      		brne .+2
 1127 05b8 00C0      		rjmp .L120
 1128 05ba 0D97      		sbiw r24,13
 1129 05bc 01F0      		breq .+2
 1130 05be 00C0      		rjmp .L117
 1131 05c0 00C0      		rjmp .L118
 1132               	.L188:
 1133 05c2 8B31      		cpi r24,27
 1134 05c4 9105      		cpc r25,__zero_reg__
 1135 05c6 01F4      		brne .+2
 1136 05c8 00C0      		rjmp .L123
 1137 05ca 8C31      		cpi r24,28
 1138 05cc 9105      		cpc r25,__zero_reg__
 1139 05ce 04F0      		brlt .+2
 1140 05d0 00C0      		rjmp .L124
 1141 05d2 4A97      		sbiw r24,26
 1142 05d4 01F0      		breq .+2
 1143 05d6 00C0      		rjmp .L117
 1144 05d8 00C0      		rjmp .L122
 1145               	.L187:
 1146 05da 8332      		cpi r24,35
 1147 05dc 9105      		cpc r25,__zero_reg__
 1148 05de 01F4      		brne .+2
 1149 05e0 00C0      		rjmp .L129
 1150 05e2 8432      		cpi r24,36
 1151 05e4 9105      		cpc r25,__zero_reg__
 1152 05e6 04F4      		brge .L189
 1153 05e8 8132      		cpi r24,33
 1154 05ea 9105      		cpc r25,__zero_reg__
 1155 05ec 01F4      		brne .+2
 1156 05ee 00C0      		rjmp .L127
 1157 05f0 8232      		cpi r24,34
 1158 05f2 9105      		cpc r25,__zero_reg__
 1159 05f4 04F0      		brlt .+2
 1160 05f6 00C0      		rjmp .L128
 1161 05f8 4E97      		sbiw r24,30
 1162 05fa 01F0      		breq .+2
 1163 05fc 00C0      		rjmp .L117
 1164 05fe 00C0      		rjmp .L126
 1165               	.L189:
 1166 0600 8532      		cpi r24,37
 1167 0602 9105      		cpc r25,__zero_reg__
 1168 0604 01F4      		brne .+2
 1169 0606 00C0      		rjmp .L131
 1170 0608 8532      		cpi r24,37
 1171 060a 9105      		cpc r25,__zero_reg__
 1172 060c 04F4      		brge .+2
 1173 060e 00C0      		rjmp .L130
 1174 0610 8632      		cpi r24,38
 1175 0612 9105      		cpc r25,__zero_reg__
 1176 0614 01F4      		brne .+2
 1177 0616 00C0      		rjmp .L132
 1178 0618 8997      		sbiw r24,41
 1179 061a 01F0      		breq .+2
 1180 061c 00C0      		rjmp .L117
 1181 061e 00C0      		rjmp .L133
 1182               	.L186:
 1183 0620 8433      		cpi r24,52
 1184 0622 9105      		cpc r25,__zero_reg__
 1185 0624 01F4      		brne .+2
 1186 0626 00C0      		rjmp .L142
 1187 0628 8533      		cpi r24,53
 1188 062a 9105      		cpc r25,__zero_reg__
 1189 062c 04F4      		brge .L190
 1190 062e 8E32      		cpi r24,46
 1191 0630 9105      		cpc r25,__zero_reg__
 1192 0632 01F4      		brne .+2
 1193 0634 00C0      		rjmp .L138
 1194 0636 8F32      		cpi r24,47
 1195 0638 9105      		cpc r25,__zero_reg__
 1196 063a 04F4      		brge .L191
 1197 063c 8C32      		cpi r24,44
 1198 063e 9105      		cpc r25,__zero_reg__
 1199 0640 01F4      		brne .+2
 1200 0642 00C0      		rjmp .L136
 1201 0644 8D97      		sbiw r24,45
 1202 0646 04F0      		brlt .+2
 1203 0648 00C0      		rjmp .L137
 1204 064a 00C0      		rjmp .L204
 1205               	.L191:
 1206 064c 8233      		cpi r24,50
 1207 064e 9105      		cpc r25,__zero_reg__
 1208 0650 01F4      		brne .+2
 1209 0652 00C0      		rjmp .L140
 1210 0654 8333      		cpi r24,51
 1211 0656 9105      		cpc r25,__zero_reg__
 1212 0658 04F0      		brlt .+2
 1213 065a 00C0      		rjmp .L141
 1214 065c C197      		sbiw r24,49
 1215 065e 01F0      		breq .+2
 1216 0660 00C0      		rjmp .L117
 1217 0662 00C0      		rjmp .L139
 1218               	.L190:
 1219 0664 8B33      		cpi r24,59
 1220 0666 9105      		cpc r25,__zero_reg__
 1221 0668 01F4      		brne .+2
 1222 066a 00C0      		rjmp .L146
 1223 066c 8C33      		cpi r24,60
 1224 066e 9105      		cpc r25,__zero_reg__
 1225 0670 04F4      		brge .L192
 1226 0672 8633      		cpi r24,54
 1227 0674 9105      		cpc r25,__zero_reg__
 1228 0676 01F4      		brne .+2
 1229 0678 00C0      		rjmp .L144
 1230 067a 8633      		cpi r24,54
 1231 067c 9105      		cpc r25,__zero_reg__
 1232 067e 04F4      		brge .+2
 1233 0680 00C0      		rjmp .L143
 1234 0682 CA97      		sbiw r24,58
 1235 0684 01F0      		breq .+2
 1236 0686 00C0      		rjmp .L117
 1237 0688 00C0      		rjmp .L145
 1238               	.L192:
 1239 068a 8D33      		cpi r24,61
 1240 068c 9105      		cpc r25,__zero_reg__
 1241 068e 01F4      		brne .+2
 1242 0690 00C0      		rjmp .L148
 1243 0692 8D33      		cpi r24,61
 1244 0694 9105      		cpc r25,__zero_reg__
 1245 0696 04F4      		brge .+2
 1246 0698 00C0      		rjmp .L147
 1247 069a 8E33      		cpi r24,62
 1248 069c 9105      		cpc r25,__zero_reg__
 1249 069e 01F4      		brne .+2
 1250 06a0 00C0      		rjmp .L149
 1251 06a2 8134      		cpi r24,65
 1252 06a4 9105      		cpc r25,__zero_reg__
 1253 06a6 01F0      		breq .+2
 1254 06a8 00C0      		rjmp .L117
 1255 06aa 00C0      		rjmp .L150
 1256               	.L185:
 1257 06ac 8136      		cpi r24,97
 1258 06ae 9105      		cpc r25,__zero_reg__
 1259 06b0 01F4      		brne .+2
 1260 06b2 00C0      		rjmp .L168
 1261 06b4 8236      		cpi r24,98
 1262 06b6 9105      		cpc r25,__zero_reg__
 1263 06b8 04F0      		brlt .+2
 1264 06ba 00C0      		rjmp .L193
 1265 06bc 8C34      		cpi r24,76
 1266 06be 9105      		cpc r25,__zero_reg__
 1267 06c0 01F4      		brne .+2
 1268 06c2 00C0      		rjmp .L159
 1269 06c4 8D34      		cpi r24,77
 1270 06c6 9105      		cpc r25,__zero_reg__
 1271 06c8 04F4      		brge .L194
 1272 06ca 8634      		cpi r24,70
 1273 06cc 9105      		cpc r25,__zero_reg__
 1274 06ce 01F4      		brne .+2
 1275 06d0 00C0      		rjmp .L155
 1276 06d2 8734      		cpi r24,71
 1277 06d4 9105      		cpc r25,__zero_reg__
 1278 06d6 04F4      		brge .L195
 1279 06d8 8434      		cpi r24,68
 1280 06da 9105      		cpc r25,__zero_reg__
 1281 06dc 01F4      		brne .+2
 1282 06de 00C0      		rjmp .L153
 1283 06e0 8534      		cpi r24,69
 1284 06e2 9105      		cpc r25,__zero_reg__
 1285 06e4 04F0      		brlt .+2
 1286 06e6 00C0      		rjmp .L154
 1287 06e8 00C0      		rjmp .L205
 1288               	.L195:
 1289 06ea 8A34      		cpi r24,74
 1290 06ec 9105      		cpc r25,__zero_reg__
 1291 06ee 01F4      		brne .+2
 1292 06f0 00C0      		rjmp .L157
 1293 06f2 8B34      		cpi r24,75
 1294 06f4 9105      		cpc r25,__zero_reg__
 1295 06f6 04F0      		brlt .+2
 1296 06f8 00C0      		rjmp .L158
 1297 06fa 8934      		cpi r24,73
 1298 06fc 9105      		cpc r25,__zero_reg__
 1299 06fe 01F0      		breq .+2
 1300 0700 00C0      		rjmp .L117
 1301 0702 00C0      		rjmp .L156
 1302               	.L194:
 1303 0704 8435      		cpi r24,84
 1304 0706 9105      		cpc r25,__zero_reg__
 1305 0708 01F4      		brne .+2
 1306 070a 00C0      		rjmp .L163
 1307 070c 8535      		cpi r24,85
 1308 070e 9105      		cpc r25,__zero_reg__
 1309 0710 04F4      		brge .L196
 1310 0712 8E34      		cpi r24,78
 1311 0714 9105      		cpc r25,__zero_reg__
 1312 0716 01F4      		brne .+2
 1313 0718 00C0      		rjmp .L161
 1314 071a 8E34      		cpi r24,78
 1315 071c 9105      		cpc r25,__zero_reg__
 1316 071e 04F4      		brge .+2
 1317 0720 00C0      		rjmp .L160
 1318 0722 8235      		cpi r24,82
 1319 0724 9105      		cpc r25,__zero_reg__
 1320 0726 01F0      		breq .+2
 1321 0728 00C0      		rjmp .L117
 1322 072a 00C0      		rjmp .L162
 1323               	.L196:
 1324 072c 8A35      		cpi r24,90
 1325 072e 9105      		cpc r25,__zero_reg__
 1326 0730 01F4      		brne .+2
 1327 0732 00C0      		rjmp .L165
 1328 0734 8B35      		cpi r24,91
 1329 0736 9105      		cpc r25,__zero_reg__
 1330 0738 04F4      		brge .L197
 1331 073a 8535      		cpi r24,85
 1332 073c 9105      		cpc r25,__zero_reg__
 1333 073e 01F0      		breq .+2
 1334 0740 00C0      		rjmp .L117
 1335 0742 00C0      		rjmp .L164
 1336               	.L197:
 1337 0744 8B35      		cpi r24,91
 1338 0746 9105      		cpc r25,__zero_reg__
 1339 0748 01F4      		brne .+2
 1340 074a 00C0      		rjmp .L166
 1341 074c 8D35      		cpi r24,93
 1342 074e 9105      		cpc r25,__zero_reg__
 1343 0750 01F0      		breq .+2
 1344 0752 00C0      		rjmp .L117
 1345 0754 00C0      		rjmp .L167
 1346               	.L193:
 1347 0756 8437      		cpi r24,116
 1348 0758 9105      		cpc r25,__zero_reg__
 1349 075a 01F4      		brne .+2
 1350 075c 00C0      		rjmp .L177
 1351 075e 8537      		cpi r24,117
 1352 0760 9105      		cpc r25,__zero_reg__
 1353 0762 04F4      		brge .L198
 1354 0764 8C36      		cpi r24,108
 1355 0766 9105      		cpc r25,__zero_reg__
 1356 0768 01F4      		brne .+2
 1357 076a 00C0      		rjmp .L172
 1358 076c 8D36      		cpi r24,109
 1359 076e 9105      		cpc r25,__zero_reg__
 1360 0770 04F4      		brge .L199
 1361 0772 8936      		cpi r24,105
 1362 0774 9105      		cpc r25,__zero_reg__
 1363 0776 01F4      		brne .+2
 1364 0778 00C0      		rjmp .L170
 1365 077a 8B36      		cpi r24,107
 1366 077c 9105      		cpc r25,__zero_reg__
 1367 077e 01F4      		brne .+2
 1368 0780 00C0      		rjmp .L171
 1369 0782 8636      		cpi r24,102
 1370 0784 9105      		cpc r25,__zero_reg__
 1371 0786 01F4      		brne .L117
 1372 0788 00C0      		rjmp .L169
 1373               	.L199:
 1374 078a 8137      		cpi r24,113
 1375 078c 9105      		cpc r25,__zero_reg__
 1376 078e 01F4      		brne .+2
 1377 0790 00C0      		rjmp .L174
 1378 0792 8237      		cpi r24,114
 1379 0794 9105      		cpc r25,__zero_reg__
 1380 0796 04F4      		brge .L200
 1381 0798 8037      		cpi r24,112
 1382 079a 9105      		cpc r25,__zero_reg__
 1383 079c 01F4      		brne .L117
 1384 079e 00C0      		rjmp .L173
 1385               	.L200:
 1386 07a0 8237      		cpi r24,114
 1387 07a2 9105      		cpc r25,__zero_reg__
 1388 07a4 01F4      		brne .+2
 1389 07a6 00C0      		rjmp .L175
 1390 07a8 8337      		cpi r24,115
 1391 07aa 9105      		cpc r25,__zero_reg__
 1392 07ac 01F4      		brne .L117
 1393 07ae 00C0      		rjmp .L176
 1394               	.L198:
 1395 07b0 8A37      		cpi r24,122
 1396 07b2 9105      		cpc r25,__zero_reg__
 1397 07b4 01F4      		brne .+2
 1398 07b6 00C0      		rjmp .L181
 1399 07b8 8B37      		cpi r24,123
 1400 07ba 9105      		cpc r25,__zero_reg__
 1401 07bc 04F4      		brge .L201
 1402 07be 8637      		cpi r24,118
 1403 07c0 9105      		cpc r25,__zero_reg__
 1404 07c2 01F4      		brne .+2
 1405 07c4 00C0      		rjmp .L179
 1406 07c6 8637      		cpi r24,118
 1407 07c8 9105      		cpc r25,__zero_reg__
 1408 07ca 04F4      		brge .+2
 1409 07cc 00C0      		rjmp .L178
 1410 07ce 8937      		cpi r24,121
 1411 07d0 9105      		cpc r25,__zero_reg__
 1412 07d2 01F4      		brne .L117
 1413 07d4 00C0      		rjmp .L180
 1414               	.L201:
 1415 07d6 8C37      		cpi r24,124
 1416 07d8 9105      		cpc r25,__zero_reg__
 1417 07da 01F4      		brne .+2
 1418 07dc 00C0      		rjmp .L166
 1419 07de 8C37      		cpi r24,124
 1420 07e0 9105      		cpc r25,__zero_reg__
 1421 07e2 04F4      		brge .+2
 1422 07e4 00C0      		rjmp .L182
 1423 07e6 8D37      		cpi r24,125
 1424 07e8 9105      		cpc r25,__zero_reg__
 1425 07ea 01F4      		brne .+2
 1426 07ec 00C0      		rjmp .L183
 1427 07ee 803E      		cpi r24,224
 1428 07f0 9105      		cpc r25,__zero_reg__
 1429 07f2 01F4      		brne .L117
 1430 07f4 8AE0      		ldi r24,lo8(10)
 1431 07f6 90E0      		ldi r25,hi8(10)
 1432               	.LVL167:
 1433 07f8 0895      		ret
 1434               	.LVL168:
 1435               	.L117:
 1436 07fa 80E0      		ldi r24,lo8(0)
 1437 07fc 90E0      		ldi r25,hi8(0)
 1438               	.LVL169:
 1439 07fe 0895      		ret
 1440               	.LVL170:
 1441               	.L118:
 1442 0800 89E0      		ldi r24,lo8(9)
 1443 0802 90E0      		ldi r25,hi8(9)
 1444               	.LVL171:
 1445 0804 0895      		ret
 1446               	.LVL172:
 1447               	.L119:
 1448               	.LM77:
 1449 0806 80EB      		ldi r24,lo8(176)
 1450 0808 90E0      		ldi r25,hi8(176)
 1451               	.LVL173:
 1452 080a 0895      		ret
 1453               	.LVL174:
 1454               	.L120:
 1455               	.LM78:
 1456 080c 81E5      		ldi r24,lo8(81)
 1457 080e 90E0      		ldi r25,hi8(81)
 1458               	.LVL175:
 1459 0810 0895      		ret
 1460               	.LVL176:
 1461               	.L121:
 1462               	.LM79:
 1463 0812 81E2      		ldi r24,lo8(33)
 1464 0814 90E0      		ldi r25,hi8(33)
 1465               	.LVL177:
 1466 0816 0895      		ret
 1467               	.LVL178:
 1468               	.L122:
 1469               	.LM80:
 1470 0818 89E5      		ldi r24,lo8(89)
 1471 081a 90E0      		ldi r25,hi8(89)
 1472               	.LVL179:
 1473 081c 0895      		ret
 1474               	.LVL180:
 1475               	.L123:
 1476               	.LM81:
 1477 081e 83E5      		ldi r24,lo8(83)
 1478 0820 90E0      		ldi r25,hi8(83)
 1479               	.LVL181:
 1480 0822 0895      		ret
 1481               	.LVL182:
 1482               	.L124:
 1483               	.LM82:
 1484 0824 81E4      		ldi r24,lo8(65)
 1485 0826 90E0      		ldi r25,hi8(65)
 1486               	.LVL183:
 1487 0828 0895      		ret
 1488               	.LVL184:
 1489               	.L125:
 1490               	.LM83:
 1491 082a 87E5      		ldi r24,lo8(87)
 1492 082c 90E0      		ldi r25,hi8(87)
 1493               	.LVL185:
 1494 082e 0895      		ret
 1495               	.LVL186:
 1496               	.L126:
 1497               	.LM84:
 1498 0830 82E2      		ldi r24,lo8(34)
 1499 0832 90E0      		ldi r25,hi8(34)
 1500               	.LVL187:
 1501 0834 0895      		ret
 1502               	.LVL188:
 1503               	.L127:
 1504               	.LM85:
 1505 0836 83E4      		ldi r24,lo8(67)
 1506 0838 90E0      		ldi r25,hi8(67)
 1507               	.LVL189:
 1508 083a 0895      		ret
 1509               	.LVL190:
 1510               	.L128:
 1511               	.LM86:
 1512 083c 88E5      		ldi r24,lo8(88)
 1513 083e 90E0      		ldi r25,hi8(88)
 1514               	.LVL191:
 1515 0840 0895      		ret
 1516               	.LVL192:
 1517               	.L129:
 1518               	.LM87:
 1519 0842 84E4      		ldi r24,lo8(68)
 1520 0844 90E0      		ldi r25,hi8(68)
 1521               	.LVL193:
 1522 0846 0895      		ret
 1523               	.LVL194:
 1524               	.L130:
 1525               	.LM88:
 1526 0848 85E4      		ldi r24,lo8(69)
 1527 084a 90E0      		ldi r25,hi8(69)
 1528               	.LVL195:
 1529 084c 0895      		ret
 1530               	.LVL196:
 1531               	.L131:
 1532               	.LM89:
 1533 084e 84E2      		ldi r24,lo8(36)
 1534 0850 90E0      		ldi r25,hi8(36)
 1535               	.LVL197:
 1536 0852 0895      		ret
 1537               	.LVL198:
 1538               	.L132:
 1539               	.LM90:
 1540 0854 87EA      		ldi r24,lo8(167)
 1541 0856 90E0      		ldi r25,hi8(167)
 1542               	.LVL199:
 1543 0858 0895      		ret
 1544               	.LVL200:
 1545               	.L133:
 1546               	.LM91:
 1547 085a 80E2      		ldi r24,lo8(32)
 1548 085c 90E0      		ldi r25,hi8(32)
 1549               	.LVL201:
 1550 085e 0895      		ret
 1551               	.LVL202:
 1552               	.L134:
 1553               	.LM92:
 1554 0860 86E5      		ldi r24,lo8(86)
 1555 0862 90E0      		ldi r25,hi8(86)
 1556               	.LVL203:
 1557 0864 0895      		ret
 1558               	.LVL204:
 1559               	.L204:
 1560               	.LM93:
 1561 0866 86E4      		ldi r24,lo8(70)
 1562 0868 90E0      		ldi r25,hi8(70)
 1563               	.LVL205:
 1564 086a 0895      		ret
 1565               	.LVL206:
 1566               	.L136:
 1567               	.LM94:
 1568 086c 84E5      		ldi r24,lo8(84)
 1569 086e 90E0      		ldi r25,hi8(84)
 1570               	.LVL207:
 1571 0870 0895      		ret
 1572               	.LVL208:
 1573               	.L137:
 1574               	.LM95:
 1575 0872 82E5      		ldi r24,lo8(82)
 1576 0874 90E0      		ldi r25,hi8(82)
 1577               	.LVL209:
 1578 0876 0895      		ret
 1579               	.LVL210:
 1580               	.L138:
 1581               	.LM96:
 1582 0878 85E2      		ldi r24,lo8(37)
 1583 087a 90E0      		ldi r25,hi8(37)
 1584               	.LVL211:
 1585 087c 0895      		ret
 1586               	.LVL212:
 1587               	.L139:
 1588               	.LM97:
 1589 087e 8EE4      		ldi r24,lo8(78)
 1590 0880 90E0      		ldi r25,hi8(78)
 1591               	.LVL213:
 1592 0882 0895      		ret
 1593               	.LVL214:
 1594               	.L140:
 1595               	.LM98:
 1596 0884 82E4      		ldi r24,lo8(66)
 1597 0886 90E0      		ldi r25,hi8(66)
 1598               	.LVL215:
 1599 0888 0895      		ret
 1600               	.LVL216:
 1601               	.L141:
 1602               	.LM99:
 1603 088a 88E4      		ldi r24,lo8(72)
 1604 088c 90E0      		ldi r25,hi8(72)
 1605               	.LVL217:
 1606 088e 0895      		ret
 1607               	.LVL218:
 1608               	.L142:
 1609               	.LM100:
 1610 0890 87E4      		ldi r24,lo8(71)
 1611 0892 90E0      		ldi r25,hi8(71)
 1612               	.LVL219:
 1613 0894 0895      		ret
 1614               	.LVL220:
 1615               	.L143:
 1616               	.LM101:
 1617 0896 8AE5      		ldi r24,lo8(90)
 1618 0898 90E0      		ldi r25,hi8(90)
 1619               	.LVL221:
 1620 089a 0895      		ret
 1621               	.LVL222:
 1622               	.L144:
 1623               	.LM102:
 1624 089c 86E2      		ldi r24,lo8(38)
 1625 089e 90E0      		ldi r25,hi8(38)
 1626               	.LVL223:
 1627 08a0 0895      		ret
 1628               	.LVL224:
 1629               	.L145:
 1630               	.LM103:
 1631 08a2 8DE4      		ldi r24,lo8(77)
 1632 08a4 90E0      		ldi r25,hi8(77)
 1633               	.LVL225:
 1634 08a6 0895      		ret
 1635               	.LVL226:
 1636               	.L146:
 1637               	.LM104:
 1638 08a8 8AE4      		ldi r24,lo8(74)
 1639 08aa 90E0      		ldi r25,hi8(74)
 1640               	.LVL227:
 1641 08ac 0895      		ret
 1642               	.LVL228:
 1643               	.L147:
 1644               	.LM105:
 1645 08ae 85E5      		ldi r24,lo8(85)
 1646 08b0 90E0      		ldi r25,hi8(85)
 1647               	.LVL229:
 1648 08b2 0895      		ret
 1649               	.LVL230:
 1650               	.L148:
 1651               	.LM106:
 1652 08b4 8FE2      		ldi r24,lo8(47)
 1653 08b6 90E0      		ldi r25,hi8(47)
 1654               	.LVL231:
 1655 08b8 0895      		ret
 1656               	.LVL232:
 1657               	.L149:
 1658               	.LM107:
 1659 08ba 88E2      		ldi r24,lo8(40)
 1660 08bc 90E0      		ldi r25,hi8(40)
 1661               	.LVL233:
 1662 08be 0895      		ret
 1663               	.LVL234:
 1664               	.L150:
 1665               	.LM108:
 1666 08c0 8BE3      		ldi r24,lo8(59)
 1667 08c2 90E0      		ldi r25,hi8(59)
 1668               	.LVL235:
 1669 08c4 0895      		ret
 1670               	.LVL236:
 1671               	.L151:
 1672               	.LM109:
 1673 08c6 8BE4      		ldi r24,lo8(75)
 1674 08c8 90E0      		ldi r25,hi8(75)
 1675               	.LVL237:
 1676 08ca 0895      		ret
 1677               	.LVL238:
 1678               	.L205:
 1679               	.LM110:
 1680 08cc 89E4      		ldi r24,lo8(73)
 1681 08ce 90E0      		ldi r25,hi8(73)
 1682               	.LVL239:
 1683 08d0 0895      		ret
 1684               	.LVL240:
 1685               	.L153:
 1686               	.LM111:
 1687 08d2 8FE4      		ldi r24,lo8(79)
 1688 08d4 90E0      		ldi r25,hi8(79)
 1689               	.LVL241:
 1690 08d6 0895      		ret
 1691               	.LVL242:
 1692               	.L154:
 1693               	.LM112:
 1694 08d8 8DE3      		ldi r24,lo8(61)
 1695 08da 90E0      		ldi r25,hi8(61)
 1696               	.LVL243:
 1697 08dc 0895      		ret
 1698               	.LVL244:
 1699               	.L155:
 1700               	.LM113:
 1701 08de 89E2      		ldi r24,lo8(41)
 1702 08e0 90E0      		ldi r25,hi8(41)
 1703               	.LVL245:
 1704 08e2 0895      		ret
 1705               	.LVL246:
 1706               	.L156:
 1707               	.LM114:
 1708 08e4 8AE3      		ldi r24,lo8(58)
 1709 08e6 90E0      		ldi r25,hi8(58)
 1710               	.LVL247:
 1711 08e8 0895      		ret
 1712               	.LVL248:
 1713               	.L157:
 1714               	.LM115:
 1715 08ea 8FE5      		ldi r24,lo8(95)
 1716 08ec 90E0      		ldi r25,hi8(95)
 1717               	.LVL249:
 1718 08ee 0895      		ret
 1719               	.LVL250:
 1720               	.L158:
 1721               	.LM116:
 1722 08f0 8CE4      		ldi r24,lo8(76)
 1723 08f2 90E0      		ldi r25,hi8(76)
 1724               	.LVL251:
 1725 08f4 0895      		ret
 1726               	.LVL252:
 1727               	.L159:
 1728               	.LM117:
 1729 08f6 86ED      		ldi r24,lo8(214)
 1730 08f8 90E0      		ldi r25,hi8(214)
 1731               	.LVL253:
 1732 08fa 0895      		ret
 1733               	.LVL254:
 1734               	.L160:
 1735               	.LM118:
 1736 08fc 80E5      		ldi r24,lo8(80)
 1737 08fe 90E0      		ldi r25,hi8(80)
 1738               	.LVL255:
 1739 0900 0895      		ret
 1740               	.LVL256:
 1741               	.L161:
 1742               	.LM119:
 1743 0902 8FE3      		ldi r24,lo8(63)
 1744 0904 90E0      		ldi r25,hi8(63)
 1745               	.LVL257:
 1746 0906 0895      		ret
 1747               	.LVL258:
 1748               	.L162:
 1749               	.LM120:
 1750 0908 84EC      		ldi r24,lo8(196)
 1751 090a 90E0      		ldi r25,hi8(196)
 1752               	.LVL259:
 1753 090c 0895      		ret
 1754               	.LVL260:
 1755               	.L163:
 1756               	.LM121:
 1757 090e 8CED      		ldi r24,lo8(220)
 1758 0910 90E0      		ldi r25,hi8(220)
 1759               	.LVL261:
 1760 0912 0895      		ret
 1761               	.LVL262:
 1762               	.L164:
 1763               	.LM122:
 1764 0914 80E6      		ldi r24,lo8(96)
 1765 0916 90E0      		ldi r25,hi8(96)
 1766               	.LVL263:
 1767 0918 0895      		ret
 1768               	.LVL264:
 1769               	.L165:
 1770               	.LM123:
 1771 091a 8DE0      		ldi r24,lo8(13)
 1772 091c 90E0      		ldi r25,hi8(13)
 1773               	.LVL265:
 1774 091e 0895      		ret
 1775               	.LVL266:
 1776               	.L167:
 1777               	.LM124:
 1778 0920 87E2      		ldi r24,lo8(39)
 1779 0922 90E0      		ldi r25,hi8(39)
 1780               	.LVL267:
 1781 0924 0895      		ret
 1782               	.LVL268:
 1783               	.L168:
 1784               	.LM125:
 1785 0926 8EE3      		ldi r24,lo8(62)
 1786 0928 90E0      		ldi r25,hi8(62)
 1787               	.LVL269:
 1788 092a 0895      		ret
 1789               	.LVL270:
 1790               	.L169:
 1791               	.LM126:
 1792 092c 88E0      		ldi r24,lo8(8)
 1793 092e 90E0      		ldi r25,hi8(8)
 1794               	.LVL271:
 1795 0930 0895      		ret
 1796               	.LVL272:
 1797               	.L170:
 1798               	.LM127:
 1799 0932 81E3      		ldi r24,lo8(49)
 1800 0934 90E0      		ldi r25,hi8(49)
 1801               	.LVL273:
 1802 0936 0895      		ret
 1803               	.LVL274:
 1804               	.L171:
 1805               	.LM128:
 1806 0938 84E3      		ldi r24,lo8(52)
 1807 093a 90E0      		ldi r25,hi8(52)
 1808               	.LVL275:
 1809 093c 0895      		ret
 1810               	.LVL276:
 1811               	.L172:
 1812               	.LM129:
 1813 093e 87E3      		ldi r24,lo8(55)
 1814 0940 90E0      		ldi r25,hi8(55)
 1815               	.LVL277:
 1816 0942 0895      		ret
 1817               	.LVL278:
 1818               	.L173:
 1819               	.LM130:
 1820 0944 80E3      		ldi r24,lo8(48)
 1821 0946 90E0      		ldi r25,hi8(48)
 1822               	.LVL279:
 1823 0948 0895      		ret
 1824               	.LVL280:
 1825               	.L174:
 1826               	.LM131:
 1827 094a 8CE2      		ldi r24,lo8(44)
 1828 094c 90E0      		ldi r25,hi8(44)
 1829               	.LVL281:
 1830 094e 0895      		ret
 1831               	.LVL282:
 1832               	.L175:
 1833               	.LM132:
 1834 0950 82E3      		ldi r24,lo8(50)
 1835 0952 90E0      		ldi r25,hi8(50)
 1836               	.LVL283:
 1837 0954 0895      		ret
 1838               	.LVL284:
 1839               	.L176:
 1840               	.LM133:
 1841 0956 85E3      		ldi r24,lo8(53)
 1842 0958 90E0      		ldi r25,hi8(53)
 1843               	.LVL285:
 1844 095a 0895      		ret
 1845               	.LVL286:
 1846               	.L177:
 1847               	.LM134:
 1848 095c 86E3      		ldi r24,lo8(54)
 1849 095e 90E0      		ldi r25,hi8(54)
 1850               	.LVL287:
 1851 0960 0895      		ret
 1852               	.LVL288:
 1853               	.L178:
 1854               	.LM135:
 1855 0962 88E3      		ldi r24,lo8(56)
 1856 0964 90E0      		ldi r25,hi8(56)
 1857               	.LVL289:
 1858 0966 0895      		ret
 1859               	.LVL290:
 1860               	.L179:
 1861               	.LM136:
 1862 0968 8BE1      		ldi r24,lo8(27)
 1863 096a 90E0      		ldi r25,hi8(27)
 1864               	.LVL291:
 1865 096c 0895      		ret
 1866               	.LVL292:
 1867               	.L180:
 1868               	.LM137:
 1869 096e 8BE2      		ldi r24,lo8(43)
 1870 0970 90E0      		ldi r25,hi8(43)
 1871               	.LVL293:
 1872 0972 0895      		ret
 1873               	.LVL294:
 1874               	.L181:
 1875               	.LM138:
 1876 0974 83E3      		ldi r24,lo8(51)
 1877 0976 90E0      		ldi r25,hi8(51)
 1878               	.LVL295:
 1879 0978 0895      		ret
 1880               	.LVL296:
 1881               	.L182:
 1882               	.LM139:
 1883 097a 8DE2      		ldi r24,lo8(45)
 1884 097c 90E0      		ldi r25,hi8(45)
 1885               	.LVL297:
 1886 097e 0895      		ret
 1887               	.LVL298:
 1888               	.L183:
 1889               	.LM140:
 1890 0980 89E3      		ldi r24,lo8(57)
 1891 0982 90E0      		ldi r25,hi8(57)
 1892               	.LVL299:
 1893 0984 0895      		ret
 1894               	.LVL300:
 1895               	.L166:
 1896               	.LM141:
 1897 0986 8AE2      		ldi r24,lo8(42)
 1898 0988 90E0      		ldi r25,hi8(42)
 1899               	.LVL301:
 1900               	.LM142:
 1901 098a 0895      		ret
 1902               	/* epilogue: frame size=0 */
 1903               	/* epilogue: noreturn */
 1904               	/* epilogue end (size=0) */
 1905               	/* function decodeShiftedChar size 534 (534) */
 1906               	.LFE4:
 1908               	.global	decodeAlteredChar
 1910               	decodeAlteredChar:
 1911               	.LFB5:
 1912               	.LM143:
 1913               	/* prologue: frame size=0 */
 1914               	/* prologue end (size=0) */
 1915               	.LVL302:
 1916               	.LM144:
 1917 098c 8434      		cpi r24,68
 1918 098e 9105      		cpc r25,__zero_reg__
 1919 0990 01F4      		brne .+2
 1920 0992 00C0      		rjmp .L230
 1921               	.LM145:
 1922 0994 8534      		cpi r24,69
 1923 0996 9105      		cpc r25,__zero_reg__
 1924 0998 04F0      		brlt .+2
 1925 099a 00C0      		rjmp .L260
 1926 099c 8932      		cpi r24,41
 1927 099e 9105      		cpc r25,__zero_reg__
 1928 09a0 01F4      		brne .+2
 1929 09a2 00C0      		rjmp .L222
 1930 09a4 8A32      		cpi r24,42
 1931 09a6 9105      		cpc r25,__zero_reg__
 1932 09a8 04F0      		brlt .+2
 1933 09aa 00C0      		rjmp .L261
 1934 09ac 8D31      		cpi r24,29
 1935 09ae 9105      		cpc r25,__zero_reg__
 1936 09b0 01F4      		brne .+2
 1937 09b2 00C0      		rjmp .L215
 1938 09b4 8E31      		cpi r24,30
 1939 09b6 9105      		cpc r25,__zero_reg__
 1940 09b8 04F4      		brge .L262
 1941 09ba 8631      		cpi r24,22
 1942 09bc 9105      		cpc r25,__zero_reg__
 1943 09be 01F4      		brne .+2
 1944 09c0 00C0      		rjmp .L211
 1945 09c2 8731      		cpi r24,23
 1946 09c4 9105      		cpc r25,__zero_reg__
 1947 09c6 04F4      		brge .L263
 1948 09c8 8E30      		cpi r24,14
 1949 09ca 9105      		cpc r25,__zero_reg__
 1950 09cc 01F4      		brne .+2
 1951 09ce 00C0      		rjmp .L209
 1952 09d0 8531      		cpi r24,21
 1953 09d2 9105      		cpc r25,__zero_reg__
 1954 09d4 01F4      		brne .+2
 1955 09d6 00C0      		rjmp .L210
 1956 09d8 0D97      		sbiw r24,13
 1957 09da 01F0      		breq .+2
 1958 09dc 00C0      		rjmp .L207
 1959 09de 00C0      		rjmp .L208
 1960               	.L263:
 1961 09e0 8B31      		cpi r24,27
 1962 09e2 9105      		cpc r25,__zero_reg__
 1963 09e4 01F4      		brne .+2
 1964 09e6 00C0      		rjmp .L213
 1965 09e8 8C31      		cpi r24,28
 1966 09ea 9105      		cpc r25,__zero_reg__
 1967 09ec 04F0      		brlt .+2
 1968 09ee 00C0      		rjmp .L214
 1969 09f0 4A97      		sbiw r24,26
 1970 09f2 01F0      		breq .+2
 1971 09f4 00C0      		rjmp .L207
 1972 09f6 00C0      		rjmp .L212
 1973               	.L262:
 1974 09f8 8332      		cpi r24,35
 1975 09fa 9105      		cpc r25,__zero_reg__
 1976 09fc 01F4      		brne .+2
 1977 09fe 00C0      		rjmp .L219
 1978 0a00 8432      		cpi r24,36
 1979 0a02 9105      		cpc r25,__zero_reg__
 1980 0a04 04F4      		brge .L264
 1981 0a06 8132      		cpi r24,33
 1982 0a08 9105      		cpc r25,__zero_reg__
 1983 0a0a 01F4      		brne .+2
 1984 0a0c 00C0      		rjmp .L217
 1985 0a0e 8232      		cpi r24,34
 1986 0a10 9105      		cpc r25,__zero_reg__
 1987 0a12 04F0      		brlt .+2
 1988 0a14 00C0      		rjmp .L218
 1989 0a16 4E97      		sbiw r24,30
 1990 0a18 01F0      		breq .+2
 1991 0a1a 00C0      		rjmp .L207
 1992 0a1c 00C0      		rjmp .L216
 1993               	.L264:
 1994 0a1e 8532      		cpi r24,37
 1995 0a20 9105      		cpc r25,__zero_reg__
 1996 0a22 01F4      		brne .+2
 1997 0a24 00C0      		rjmp .L220
 1998 0a26 8532      		cpi r24,37
 1999 0a28 9105      		cpc r25,__zero_reg__
 2000 0a2a 04F4      		brge .+2
 2001 0a2c 00C0      		rjmp .L215
 2002 0a2e 8697      		sbiw r24,38
 2003 0a30 01F0      		breq .+2
 2004 0a32 00C0      		rjmp .L207
 2005 0a34 00C0      		rjmp .L221
 2006               	.L261:
 2007 0a36 8633      		cpi r24,54
 2008 0a38 9105      		cpc r25,__zero_reg__
 2009 0a3a 01F4      		brne .+2
 2010 0a3c 00C0      		rjmp .L209
 2011 0a3e 8733      		cpi r24,55
 2012 0a40 9105      		cpc r25,__zero_reg__
 2013 0a42 04F4      		brge .L265
 2014 0a44 8E32      		cpi r24,46
 2015 0a46 9105      		cpc r25,__zero_reg__
 2016 0a48 01F4      		brne .+2
 2017 0a4a 00C0      		rjmp .L224
 2018 0a4c 8F32      		cpi r24,47
 2019 0a4e 9105      		cpc r25,__zero_reg__
 2020 0a50 04F4      		brge .L266
 2021 0a52 8D97      		sbiw r24,45
 2022 0a54 04F4      		brge .+2
 2023 0a56 00C0      		rjmp .L215
 2024 0a58 00C0      		rjmp .L277
 2025               	.L266:
 2026 0a5a 8133      		cpi r24,49
 2027 0a5c 9105      		cpc r25,__zero_reg__
 2028 0a5e 01F4      		brne .+2
 2029 0a60 00C0      		rjmp .L225
 2030 0a62 C197      		sbiw r24,49
 2031 0a64 04F4      		brge .+2
 2032 0a66 00C0      		rjmp .L207
 2033 0a68 00C0      		rjmp .L215
 2034               	.L265:
 2035 0a6a 8D33      		cpi r24,61
 2036 0a6c 9105      		cpc r25,__zero_reg__
 2037 0a6e 01F4      		brne .+2
 2038 0a70 00C0      		rjmp .L228
 2039 0a72 8E33      		cpi r24,62
 2040 0a74 9105      		cpc r25,__zero_reg__
 2041 0a76 04F4      		brge .L267
 2042 0a78 8B33      		cpi r24,59
 2043 0a7a 9105      		cpc r25,__zero_reg__
 2044 0a7c 01F4      		brne .+2
 2045 0a7e 00C0      		rjmp .L227
 2046 0a80 8C33      		cpi r24,60
 2047 0a82 9105      		cpc r25,__zero_reg__
 2048 0a84 04F0      		brlt .+2
 2049 0a86 00C0      		rjmp .L215
 2050 0a88 CA97      		sbiw r24,58
 2051 0a8a 01F0      		breq .+2
 2052 0a8c 00C0      		rjmp .L207
 2053 0a8e 00C0      		rjmp .L226
 2054               	.L267:
 2055 0a90 8E33      		cpi r24,62
 2056 0a92 9105      		cpc r25,__zero_reg__
 2057 0a94 01F4      		brne .+2
 2058 0a96 00C0      		rjmp .L229
 2059 0a98 8134      		cpi r24,65
 2060 0a9a 9105      		cpc r25,__zero_reg__
 2061 0a9c 04F4      		brge .+2
 2062 0a9e 00C0      		rjmp .L207
 2063 0aa0 00C0      		rjmp .L215
 2064               	.L260:
 2065 0aa2 8636      		cpi r24,102
 2066 0aa4 9105      		cpc r25,__zero_reg__
 2067 0aa6 01F4      		brne .+2
 2068 0aa8 00C0      		rjmp .L243
 2069 0aaa 8736      		cpi r24,103
 2070 0aac 9105      		cpc r25,__zero_reg__
 2071 0aae 04F0      		brlt .+2
 2072 0ab0 00C0      		rjmp .L268
 2073 0ab2 8E34      		cpi r24,78
 2074 0ab4 9105      		cpc r25,__zero_reg__
 2075 0ab6 01F4      		brne .+2
 2076 0ab8 00C0      		rjmp .L220
 2077 0aba 8F34      		cpi r24,79
 2078 0abc 9105      		cpc r25,__zero_reg__
 2079 0abe 04F4      		brge .L269
 2080 0ac0 8A34      		cpi r24,74
 2081 0ac2 9105      		cpc r25,__zero_reg__
 2082 0ac4 01F4      		brne .+2
 2083 0ac6 00C0      		rjmp .L234
 2084 0ac8 8B34      		cpi r24,75
 2085 0aca 9105      		cpc r25,__zero_reg__
 2086 0acc 04F4      		brge .L270
 2087 0ace 8634      		cpi r24,70
 2088 0ad0 9105      		cpc r25,__zero_reg__
 2089 0ad2 01F4      		brne .+2
 2090 0ad4 00C0      		rjmp .L232
 2091 0ad6 8634      		cpi r24,70
 2092 0ad8 9105      		cpc r25,__zero_reg__
 2093 0ada 04F4      		brge .+2
 2094 0adc 00C0      		rjmp .L231
 2095 0ade 8934      		cpi r24,73
 2096 0ae0 9105      		cpc r25,__zero_reg__
 2097 0ae2 01F0      		breq .+2
 2098 0ae4 00C0      		rjmp .L207
 2099 0ae6 00C0      		rjmp .L233
 2100               	.L270:
 2101 0ae8 8C34      		cpi r24,76
 2102 0aea 9105      		cpc r25,__zero_reg__
 2103 0aec 01F4      		brne .+2
 2104 0aee 00C0      		rjmp .L235
 2105 0af0 8D34      		cpi r24,77
 2106 0af2 9105      		cpc r25,__zero_reg__
 2107 0af4 04F0      		brlt .+2
 2108 0af6 00C0      		rjmp .L236
 2109 0af8 00C0      		rjmp .L215
 2110               	.L269:
 2111 0afa 8A35      		cpi r24,90
 2112 0afc 9105      		cpc r25,__zero_reg__
 2113 0afe 01F4      		brne .+2
 2114 0b00 00C0      		rjmp .L240
 2115 0b02 8B35      		cpi r24,91
 2116 0b04 9105      		cpc r25,__zero_reg__
 2117 0b06 04F4      		brge .L271
 2118 0b08 8435      		cpi r24,84
 2119 0b0a 9105      		cpc r25,__zero_reg__
 2120 0b0c 01F4      		brne .+2
 2121 0b0e 00C0      		rjmp .L238
 2122 0b10 8535      		cpi r24,85
 2123 0b12 9105      		cpc r25,__zero_reg__
 2124 0b14 01F4      		brne .+2
 2125 0b16 00C0      		rjmp .L239
 2126 0b18 8235      		cpi r24,82
 2127 0b1a 9105      		cpc r25,__zero_reg__
 2128 0b1c 01F0      		breq .+2
 2129 0b1e 00C0      		rjmp .L207
 2130 0b20 00C0      		rjmp .L237
 2131               	.L271:
 2132 0b22 8D35      		cpi r24,93
 2133 0b24 9105      		cpc r25,__zero_reg__
 2134 0b26 01F4      		brne .+2
 2135 0b28 00C0      		rjmp .L239
 2136 0b2a 8136      		cpi r24,97
 2137 0b2c 9105      		cpc r25,__zero_reg__
 2138 0b2e 01F4      		brne .+2
 2139 0b30 00C0      		rjmp .L242
 2140 0b32 8B35      		cpi r24,91
 2141 0b34 9105      		cpc r25,__zero_reg__
 2142 0b36 01F0      		breq .+2
 2143 0b38 00C0      		rjmp .L207
 2144 0b3a 00C0      		rjmp .L241
 2145               	.L268:
 2146 0b3c 8437      		cpi r24,116
 2147 0b3e 9105      		cpc r25,__zero_reg__
 2148 0b40 01F4      		brne .+2
 2149 0b42 00C0      		rjmp .L251
 2150 0b44 8537      		cpi r24,117
 2151 0b46 9105      		cpc r25,__zero_reg__
 2152 0b48 04F4      		brge .L272
 2153 0b4a 8037      		cpi r24,112
 2154 0b4c 9105      		cpc r25,__zero_reg__
 2155 0b4e 01F4      		brne .+2
 2156 0b50 00C0      		rjmp .L247
 2157 0b52 8137      		cpi r24,113
 2158 0b54 9105      		cpc r25,__zero_reg__
 2159 0b56 04F4      		brge .L273
 2160 0b58 8B36      		cpi r24,107
 2161 0b5a 9105      		cpc r25,__zero_reg__
 2162 0b5c 01F4      		brne .+2
 2163 0b5e 00C0      		rjmp .L245
 2164 0b60 8C36      		cpi r24,108
 2165 0b62 9105      		cpc r25,__zero_reg__
 2166 0b64 01F4      		brne .+2
 2167 0b66 00C0      		rjmp .L246
 2168 0b68 8936      		cpi r24,105
 2169 0b6a 9105      		cpc r25,__zero_reg__
 2170 0b6c 01F4      		brne .L207
 2171 0b6e 00C0      		rjmp .L244
 2172               	.L273:
 2173 0b70 8237      		cpi r24,114
 2174 0b72 9105      		cpc r25,__zero_reg__
 2175 0b74 01F4      		brne .+2
 2176 0b76 00C0      		rjmp .L249
 2177 0b78 8337      		cpi r24,115
 2178 0b7a 9105      		cpc r25,__zero_reg__
 2179 0b7c 04F0      		brlt .+2
 2180 0b7e 00C0      		rjmp .L250
 2181 0b80 00C0      		rjmp .L278
 2182               	.L272:
 2183 0b82 8A37      		cpi r24,122
 2184 0b84 9105      		cpc r25,__zero_reg__
 2185 0b86 01F4      		brne .+2
 2186 0b88 00C0      		rjmp .L255
 2187 0b8a 8B37      		cpi r24,123
 2188 0b8c 9105      		cpc r25,__zero_reg__
 2189 0b8e 04F4      		brge .L274
 2190 0b90 8637      		cpi r24,118
 2191 0b92 9105      		cpc r25,__zero_reg__
 2192 0b94 01F4      		brne .+2
 2193 0b96 00C0      		rjmp .L253
 2194 0b98 8637      		cpi r24,118
 2195 0b9a 9105      		cpc r25,__zero_reg__
 2196 0b9c 04F4      		brge .+2
 2197 0b9e 00C0      		rjmp .L252
 2198 0ba0 8937      		cpi r24,121
 2199 0ba2 9105      		cpc r25,__zero_reg__
 2200 0ba4 01F4      		brne .L207
 2201 0ba6 00C0      		rjmp .L254
 2202               	.L274:
 2203 0ba8 8C37      		cpi r24,124
 2204 0baa 9105      		cpc r25,__zero_reg__
 2205 0bac 01F4      		brne .+2
 2206 0bae 00C0      		rjmp .L257
 2207 0bb0 8C37      		cpi r24,124
 2208 0bb2 9105      		cpc r25,__zero_reg__
 2209 0bb4 04F4      		brge .+2
 2210 0bb6 00C0      		rjmp .L256
 2211 0bb8 8D37      		cpi r24,125
 2212 0bba 9105      		cpc r25,__zero_reg__
 2213 0bbc 01F4      		brne .+2
 2214 0bbe 00C0      		rjmp .L258
 2215 0bc0 803E      		cpi r24,224
 2216 0bc2 9105      		cpc r25,__zero_reg__
 2217 0bc4 01F4      		brne .L207
 2218 0bc6 8AE0      		ldi r24,lo8(10)
 2219 0bc8 90E0      		ldi r25,hi8(10)
 2220               	.LVL303:
 2221 0bca 0895      		ret
 2222               	.LVL304:
 2223               	.L207:
 2224 0bcc 80E0      		ldi r24,lo8(0)
 2225 0bce 90E0      		ldi r25,hi8(0)
 2226               	.LVL305:
 2227 0bd0 0895      		ret
 2228               	.LVL306:
 2229               	.L208:
 2230 0bd2 89E0      		ldi r24,lo8(9)
 2231 0bd4 90E0      		ldi r25,hi8(9)
 2232               	.LVL307:
 2233 0bd6 0895      		ret
 2234               	.LVL308:
 2235               	.L210:
 2236               	.LM146:
 2237 0bd8 80E4      		ldi r24,lo8(64)
 2238 0bda 90E0      		ldi r25,hi8(64)
 2239               	.LVL309:
 2240 0bdc 0895      		ret
 2241               	.LVL310:
 2242               	.L211:
 2243               	.LM147:
 2244 0bde 89EB      		ldi r24,lo8(185)
 2245 0be0 90E0      		ldi r25,hi8(185)
 2246               	.LVL311:
 2247 0be2 0895      		ret
 2248               	.LVL312:
 2249               	.L212:
 2250               	.LM148:
 2251 0be4 8BEA      		ldi r24,lo8(171)
 2252 0be6 90E0      		ldi r25,hi8(171)
 2253               	.LVL313:
 2254 0be8 0895      		ret
 2255               	.LVL314:
 2256               	.L213:
 2257               	.LM149:
 2258 0bea 8FED      		ldi r24,lo8(223)
 2259 0bec 90E0      		ldi r25,hi8(223)
 2260               	.LVL315:
 2261 0bee 0895      		ret
 2262               	.LVL316:
 2263               	.L214:
 2264               	.LM150:
 2265 0bf0 86EE      		ldi r24,lo8(230)
 2266 0bf2 90E0      		ldi r25,hi8(230)
 2267               	.LVL317:
 2268 0bf4 0895      		ret
 2269               	.LVL318:
 2270               	.L216:
 2271               	.LM151:
 2272 0bf6 82EB      		ldi r24,lo8(178)
 2273 0bf8 90E0      		ldi r25,hi8(178)
 2274               	.LVL319:
 2275 0bfa 0895      		ret
 2276               	.LVL320:
 2277               	.L217:
 2278               	.LM152:
 2279 0bfc 82EA      		ldi r24,lo8(162)
 2280 0bfe 90E0      		ldi r25,hi8(162)
 2281               	.LVL321:
 2282 0c00 0895      		ret
 2283               	.LVL322:
 2284               	.L218:
 2285               	.LM153:
 2286 0c02 8BEB      		ldi r24,lo8(187)
 2287 0c04 90E0      		ldi r25,hi8(187)
 2288               	.LVL323:
 2289 0c06 0895      		ret
 2290               	.LVL324:
 2291               	.L219:
 2292               	.LM154:
 2293 0c08 80EF      		ldi r24,lo8(240)
 2294 0c0a 90E0      		ldi r25,hi8(240)
 2295               	.LVL325:
 2296 0c0c 0895      		ret
 2297               	.LVL326:
 2298               	.L221:
 2299               	.LM155:
 2300 0c0e 83EB      		ldi r24,lo8(179)
 2301 0c10 90E0      		ldi r25,hi8(179)
 2302               	.LVL327:
 2303 0c12 0895      		ret
 2304               	.LVL328:
 2305               	.L222:
 2306               	.LM156:
 2307 0c14 80E2      		ldi r24,lo8(32)
 2308 0c16 90E0      		ldi r25,hi8(32)
 2309               	.LVL329:
 2310 0c18 0895      		ret
 2311               	.LVL330:
 2312               	.L277:
 2313               	.LM157:
 2314 0c1a 86EB      		ldi r24,lo8(182)
 2315 0c1c 90E0      		ldi r25,hi8(182)
 2316               	.LVL331:
 2317 0c1e 0895      		ret
 2318               	.LVL332:
 2319               	.L224:
 2320               	.LM158:
 2321 0c20 8DEB      		ldi r24,lo8(189)
 2322 0c22 90E0      		ldi r25,hi8(189)
 2323               	.LVL333:
 2324 0c24 0895      		ret
 2325               	.LVL334:
 2326               	.L225:
 2327               	.LM159:
 2328 0c26 8EE6      		ldi r24,lo8(110)
 2329 0c28 90E0      		ldi r25,hi8(110)
 2330               	.LVL335:
 2331 0c2a 0895      		ret
 2332               	.LVL336:
 2333               	.L226:
 2334               	.LM160:
 2335 0c2c 85EB      		ldi r24,lo8(181)
 2336 0c2e 90E0      		ldi r25,hi8(181)
 2337               	.LVL337:
 2338 0c30 0895      		ret
 2339               	.LVL338:
 2340               	.L227:
 2341               	.LM161:
 2342 0c32 8AE6      		ldi r24,lo8(106)
 2343 0c34 90E0      		ldi r25,hi8(106)
 2344               	.LVL339:
 2345 0c36 0895      		ret
 2346               	.LVL340:
 2347               	.L228:
 2348               	.LM162:
 2349 0c38 8BE7      		ldi r24,lo8(123)
 2350 0c3a 90E0      		ldi r25,hi8(123)
 2351               	.LVL341:
 2352 0c3c 0895      		ret
 2353               	.LVL342:
 2354               	.L229:
 2355               	.LM163:
 2356 0c3e 8BE5      		ldi r24,lo8(91)
 2357 0c40 90E0      		ldi r25,hi8(91)
 2358               	.LVL343:
 2359 0c42 0895      		ret
 2360               	.LVL344:
 2361               	.L230:
 2362               	.LM164:
 2363 0c44 88EF      		ldi r24,lo8(248)
 2364 0c46 90E0      		ldi r25,hi8(248)
 2365               	.LVL345:
 2366 0c48 0895      		ret
 2367               	.LVL346:
 2368               	.L231:
 2369               	.LM165:
 2370 0c4a 8DE7      		ldi r24,lo8(125)
 2371 0c4c 90E0      		ldi r25,hi8(125)
 2372               	.LVL347:
 2373 0c4e 0895      		ret
 2374               	.LVL348:
 2375               	.L232:
 2376               	.LM166:
 2377 0c50 8DE5      		ldi r24,lo8(93)
 2378 0c52 90E0      		ldi r25,hi8(93)
 2379               	.LVL349:
 2380 0c54 0895      		ret
 2381               	.LVL350:
 2382               	.L233:
 2383               	.LM167:
 2384 0c56 87EB      		ldi r24,lo8(183)
 2385 0c58 90E0      		ldi r25,hi8(183)
 2386               	.LVL351:
 2387 0c5a 0895      		ret
 2388               	.LVL352:
 2389               	.L234:
 2390               	.LM168:
 2391 0c5c 8FE5      		ldi r24,lo8(95)
 2392 0c5e 90E0      		ldi r25,hi8(95)
 2393               	.LVL353:
 2394 0c60 0895      		ret
 2395               	.LVL354:
 2396               	.L235:
 2397               	.LM169:
 2398 0c62 86ED      		ldi r24,lo8(214)
 2399 0c64 90E0      		ldi r25,hi8(214)
 2400               	.LVL355:
 2401 0c66 0895      		ret
 2402               	.LVL356:
 2403               	.L236:
 2404               	.LM170:
 2405 0c68 8EEF      		ldi r24,lo8(254)
 2406 0c6a 90E0      		ldi r25,hi8(254)
 2407               	.LVL357:
 2408 0c6c 0895      		ret
 2409               	.LVL358:
 2410               	.L237:
 2411               	.LM171:
 2412 0c6e 8EE5      		ldi r24,lo8(94)
 2413 0c70 90E0      		ldi r25,hi8(94)
 2414               	.LVL359:
 2415 0c72 0895      		ret
 2416               	.LVL360:
 2417               	.L238:
 2418               	.LM172:
 2419 0c74 82E2      		ldi r24,lo8(34)
 2420 0c76 90E0      		ldi r25,hi8(34)
 2421               	.LVL361:
 2422 0c78 0895      		ret
 2423               	.LVL362:
 2424               	.L240:
 2425               	.LM173:
 2426 0c7a 8DE0      		ldi r24,lo8(13)
 2427 0c7c 90E0      		ldi r25,hi8(13)
 2428               	.LVL363:
 2429 0c7e 0895      		ret
 2430               	.LVL364:
 2431               	.L241:
 2432               	.LM174:
 2433 0c80 8EE7      		ldi r24,lo8(126)
 2434 0c82 90E0      		ldi r25,hi8(126)
 2435               	.LVL365:
 2436 0c84 0895      		ret
 2437               	.LVL366:
 2438               	.L242:
 2439               	.LM175:
 2440 0c86 8CE7      		ldi r24,lo8(124)
 2441 0c88 90E0      		ldi r25,hi8(124)
 2442               	.LVL367:
 2443 0c8a 0895      		ret
 2444               	.LVL368:
 2445               	.L243:
 2446               	.LM176:
 2447 0c8c 88E0      		ldi r24,lo8(8)
 2448 0c8e 90E0      		ldi r25,hi8(8)
 2449               	.LVL369:
 2450 0c90 0895      		ret
 2451               	.LVL370:
 2452               	.L244:
 2453               	.LM177:
 2454 0c92 81E3      		ldi r24,lo8(49)
 2455 0c94 90E0      		ldi r25,hi8(49)
 2456               	.LVL371:
 2457 0c96 0895      		ret
 2458               	.LVL372:
 2459               	.L245:
 2460               	.LM178:
 2461 0c98 84E3      		ldi r24,lo8(52)
 2462 0c9a 90E0      		ldi r25,hi8(52)
 2463               	.LVL373:
 2464 0c9c 0895      		ret
 2465               	.LVL374:
 2466               	.L246:
 2467               	.LM179:
 2468 0c9e 87E3      		ldi r24,lo8(55)
 2469 0ca0 90E0      		ldi r25,hi8(55)
 2470               	.LVL375:
 2471 0ca2 0895      		ret
 2472               	.LVL376:
 2473               	.L247:
 2474               	.LM180:
 2475 0ca4 80E3      		ldi r24,lo8(48)
 2476 0ca6 90E0      		ldi r25,hi8(48)
 2477               	.LVL377:
 2478 0ca8 0895      		ret
 2479               	.LVL378:
 2480               	.L278:
 2481               	.LM181:
 2482 0caa 8CE2      		ldi r24,lo8(44)
 2483 0cac 90E0      		ldi r25,hi8(44)
 2484               	.LVL379:
 2485 0cae 0895      		ret
 2486               	.LVL380:
 2487               	.L249:
 2488               	.LM182:
 2489 0cb0 82E3      		ldi r24,lo8(50)
 2490 0cb2 90E0      		ldi r25,hi8(50)
 2491               	.LVL381:
 2492 0cb4 0895      		ret
 2493               	.LVL382:
 2494               	.L250:
 2495               	.LM183:
 2496 0cb6 85E3      		ldi r24,lo8(53)
 2497 0cb8 90E0      		ldi r25,hi8(53)
 2498               	.LVL383:
 2499 0cba 0895      		ret
 2500               	.LVL384:
 2501               	.L251:
 2502               	.LM184:
 2503 0cbc 86E3      		ldi r24,lo8(54)
 2504 0cbe 90E0      		ldi r25,hi8(54)
 2505               	.LVL385:
 2506 0cc0 0895      		ret
 2507               	.LVL386:
 2508               	.L252:
 2509               	.LM185:
 2510 0cc2 88E3      		ldi r24,lo8(56)
 2511 0cc4 90E0      		ldi r25,hi8(56)
 2512               	.LVL387:
 2513 0cc6 0895      		ret
 2514               	.LVL388:
 2515               	.L253:
 2516               	.LM186:
 2517 0cc8 8BE1      		ldi r24,lo8(27)
 2518 0cca 90E0      		ldi r25,hi8(27)
 2519               	.LVL389:
 2520 0ccc 0895      		ret
 2521               	.LVL390:
 2522               	.L254:
 2523               	.LM187:
 2524 0cce 8BE2      		ldi r24,lo8(43)
 2525 0cd0 90E0      		ldi r25,hi8(43)
 2526               	.LVL391:
 2527 0cd2 0895      		ret
 2528               	.LVL392:
 2529               	.L255:
 2530               	.LM188:
 2531 0cd4 83E3      		ldi r24,lo8(51)
 2532 0cd6 90E0      		ldi r25,hi8(51)
 2533               	.LVL393:
 2534 0cd8 0895      		ret
 2535               	.LVL394:
 2536               	.L256:
 2537               	.LM189:
 2538 0cda 8DE2      		ldi r24,lo8(45)
 2539 0cdc 90E0      		ldi r25,hi8(45)
 2540               	.LVL395:
 2541 0cde 0895      		ret
 2542               	.LVL396:
 2543               	.L257:
 2544               	.LM190:
 2545 0ce0 8AE2      		ldi r24,lo8(42)
 2546 0ce2 90E0      		ldi r25,hi8(42)
 2547               	.LVL397:
 2548 0ce4 0895      		ret
 2549               	.LVL398:
 2550               	.L258:
 2551               	.LM191:
 2552 0ce6 89E3      		ldi r24,lo8(57)
 2553 0ce8 90E0      		ldi r25,hi8(57)
 2554               	.LVL399:
 2555 0cea 0895      		ret
 2556               	.LVL400:
 2557               	.L209:
 2558               	.LM192:
 2559 0cec 8CEA      		ldi r24,lo8(172)
 2560 0cee 90E0      		ldi r25,hi8(172)
 2561               	.LVL401:
 2562 0cf0 0895      		ret
 2563               	.LVL402:
 2564               	.L215:
 2565 0cf2 8FE3      		ldi r24,lo8(63)
 2566 0cf4 90E0      		ldi r25,hi8(63)
 2567               	.LVL403:
 2568 0cf6 0895      		ret
 2569               	.LVL404:
 2570               	.L220:
 2571 0cf8 8CE5      		ldi r24,lo8(92)
 2572 0cfa 90E0      		ldi r25,hi8(92)
 2573               	.LVL405:
 2574 0cfc 0895      		ret
 2575               	.LVL406:
 2576               	.L239:
 2577 0cfe 80E6      		ldi r24,lo8(96)
 2578 0d00 90E0      		ldi r25,hi8(96)
 2579               	.LVL407:
 2580               	.LM193:
 2581 0d02 0895      		ret
 2582               	/* epilogue: frame size=0 */
 2583               	/* epilogue: noreturn */
 2584               	/* epilogue end (size=0) */
 2585               	/* function decodeAlteredChar size 451 (451) */
 2586               	.LFE5:
 2636               	.Letext0:
DEFINED SYMBOLS
                            *ABS*:00000000 keyboard.c
     /tmp/ccoHTUXj.s:2      *ABS*:0000003f __SREG__
     /tmp/ccoHTUXj.s:3      *ABS*:0000003e __SP_H__
     /tmp/ccoHTUXj.s:4      *ABS*:0000003d __SP_L__
     /tmp/ccoHTUXj.s:5      *ABS*:00000000 __tmp_reg__
     /tmp/ccoHTUXj.s:6      *ABS*:00000001 __zero_reg__
     /tmp/ccoHTUXj.s:19     .text:00000000 decodeFunctionKey
     /tmp/ccoHTUXj.s:350    .text:00000198 decodeChar
     /tmp/ccoHTUXj.s:1082   .text:0000056e decodeShiftedChar
     /tmp/ccoHTUXj.s:1910   .text:0000098c decodeAlteredChar

UNDEFINED SYMBOLS
__do_copy_data
__do_clear_bss
